ARM GAS  C:\Users\vedranb\AppData\Local\Temp\ccvGpKxJ.s 			page 1


   1              		.syntax unified
   2              		.cpu cortex-m3
   3              		.fpu softvfp
   4              		.eabi_attribute 20, 1
   5              		.eabi_attribute 21, 1
   6              		.eabi_attribute 23, 3
   7              		.eabi_attribute 24, 1
   8              		.eabi_attribute 25, 1
   9              		.eabi_attribute 26, 1
  10              		.eabi_attribute 30, 1
  11              		.eabi_attribute 34, 1
  12              		.eabi_attribute 18, 4
  13              		.thumb
  14              		.file	"main.c"
  15              		.text
  16              	.Ltext0:
  17              		.cfi_sections	.debug_frame
  18              		.section	.text.main,"ax",%progbits
  19              		.align	2
  20              		.global	main
  21              		.thumb
  22              		.thumb_func
  23              		.type	main, %function
  24              	main:
  25              	.LFB63:
  26              		.file 1 "main.c"
   1:main.c        **** /* ========================================
   2:main.c        ****  *
   3:main.c        ****  * Copyright YOUR COMPANY, THE YEAR
   4:main.c        ****  * All Rights Reserved
   5:main.c        ****  * UNPUBLISHED, LICENSED SOFTWARE.
   6:main.c        ****  *
   7:main.c        ****  * CONFIDENTIAL AND PROPRIETARY INFORMATION
   8:main.c        ****  * WHICH IS THE PROPERTY OF your company.
   9:main.c        ****  *
  10:main.c        ****  * ========================================
  11:main.c        **** */
  12:main.c        **** #include <project.h>
  13:main.c        **** #include <stdio.h>
  14:main.c        **** 
  15:main.c        **** 
  16:main.c        **** int main(void)
  17:main.c        **** {
  27              		.loc 1 17 0
  28              		.cfi_startproc
  29              		@ Volatile: function does not return.
  30              		@ args = 0, pretend = 0, frame = 0
  31              		@ frame_needed = 0, uses_anonymous_args = 0
  32 0000 08B5     		push	{r3, lr}
  33              		.cfi_def_cfa_offset 8
  34              		.cfi_offset 3, -8
  35              		.cfi_offset 14, -4
  18:main.c        ****     CyGlobalIntEnable; /* Enable global interrupts. */
  36              		.loc 1 18 0
  37              	@ 18 "main.c" 1
  38 0002 62B6     		CPSIE   i
  39              	@ 0 "" 2
ARM GAS  C:\Users\vedranb\AppData\Local\Temp\ccvGpKxJ.s 			page 2


  19:main.c        **** 
  20:main.c        ****     /* Place your initialization/startup code here (e.g. MyInst_Start()) */
  21:main.c        ****     UART_1_Start();
  40              		.loc 1 21 0
  41              		.thumb
  42 0004 FFF7FEFF 		bl	UART_1_Start
  43              	.LVL0:
  44              	.L2:
  22:main.c        **** 
  23:main.c        ****     for(;;)
  24:main.c        ****     {
  25:main.c        ****         
  26:main.c        ****         
  27:main.c        ****     }
  45              		.loc 1 27 0 discriminator 1
  46 0008 FEE7     		b	.L2
  47              		.cfi_endproc
  48              	.LFE63:
  49              		.size	main, .-main
  50 000a 00BF     		.section	.text._write,"ax",%progbits
  51              		.align	2
  52              		.global	_write
  53              		.thumb
  54              		.thumb_func
  55              		.type	_write, %function
  56              	_write:
  57              	.LFB64:
  28:main.c        **** }
  29:main.c        **** 
  30:main.c        **** int _write(int file, char *ptr, int len)
  31:main.c        **** {
  58              		.loc 1 31 0
  59              		.cfi_startproc
  60              		@ args = 0, pretend = 0, frame = 0
  61              		@ frame_needed = 0, uses_anonymous_args = 0
  62              	.LVL1:
  63 0000 F8B5     		push	{r3, r4, r5, r6, r7, lr}
  64              		.cfi_def_cfa_offset 24
  65              		.cfi_offset 3, -24
  66              		.cfi_offset 4, -20
  67              		.cfi_offset 5, -16
  68              		.cfi_offset 6, -12
  69              		.cfi_offset 7, -8
  70              		.cfi_offset 14, -4
  71 0002 0C46     		mov	r4, r1
  72 0004 1746     		mov	r7, r2
  73              	.LVL2:
  32:main.c        ****     (void)file; /* Parameter is not used, suppress unused argument warning */
  33:main.c        **** 	int n;
  34:main.c        **** 	for(n = 0; n < len; n++) {
  74              		.loc 1 34 0
  75 0006 0025     		movs	r5, #0
  76 0008 0BE0     		b	.L5
  77              	.LVL3:
  78              	.L7:
  35:main.c        ****         if(*ptr == '\n') UART_1_PutChar('\r');
  79              		.loc 1 35 0
ARM GAS  C:\Users\vedranb\AppData\Local\Temp\ccvGpKxJ.s 			page 3


  80 000a 2378     		ldrb	r3, [r4]	@ zero_extendqisi2
  81 000c 0A2B     		cmp	r3, #10
  82 000e 02D1     		bne	.L6
  83              		.loc 1 35 0 is_stmt 0 discriminator 1
  84 0010 0D20     		movs	r0, #13
  85 0012 FFF7FEFF 		bl	UART_1_PutChar
  86              	.LVL4:
  87              	.L6:
  36:main.c        **** 		UART_1_PutChar(*ptr++);
  88              		.loc 1 36 0 is_stmt 1 discriminator 2
  89 0016 661C     		adds	r6, r4, #1
  90              	.LVL5:
  91 0018 2078     		ldrb	r0, [r4]	@ zero_extendqisi2
  92 001a FFF7FEFF 		bl	UART_1_PutChar
  93              	.LVL6:
  34:main.c        ****         if(*ptr == '\n') UART_1_PutChar('\r');
  94              		.loc 1 34 0 discriminator 2
  95 001e 0135     		adds	r5, r5, #1
  96              	.LVL7:
  97              		.loc 1 36 0 discriminator 2
  98 0020 3446     		mov	r4, r6
  99              	.LVL8:
 100              	.L5:
  34:main.c        ****         if(*ptr == '\n') UART_1_PutChar('\r');
 101              		.loc 1 34 0 discriminator 1
 102 0022 BD42     		cmp	r5, r7
 103 0024 F1DB     		blt	.L7
  37:main.c        **** 	}
  38:main.c        **** 	return len;
  39:main.c        **** }
 104              		.loc 1 39 0
 105 0026 3846     		mov	r0, r7
 106 0028 F8BD     		pop	{r3, r4, r5, r6, r7, pc}
 107              		.cfi_endproc
 108              	.LFE64:
 109              		.size	_write, .-_write
 110 002a 00BF     		.section	.text._read,"ax",%progbits
 111              		.align	2
 112              		.global	_read
 113              		.thumb
 114              		.thumb_func
 115              		.type	_read, %function
 116              	_read:
 117              	.LFB65:
  40:main.c        **** 
  41:main.c        **** int _read (int file, char *ptr, int count)
  42:main.c        **** {
 118              		.loc 1 42 0
 119              		.cfi_startproc
 120              		@ args = 0, pretend = 0, frame = 0
 121              		@ frame_needed = 0, uses_anonymous_args = 0
 122              	.LVL9:
 123 0000 F8B5     		push	{r3, r4, r5, r6, r7, lr}
 124              		.cfi_def_cfa_offset 24
 125              		.cfi_offset 3, -24
 126              		.cfi_offset 4, -20
 127              		.cfi_offset 5, -16
ARM GAS  C:\Users\vedranb\AppData\Local\Temp\ccvGpKxJ.s 			page 4


 128              		.cfi_offset 6, -12
 129              		.cfi_offset 7, -8
 130              		.cfi_offset 14, -4
 131 0002 0F46     		mov	r7, r1
 132 0004 1446     		mov	r4, r2
 133              	.LVL10:
  43:main.c        ****     int chs = 0;
 134              		.loc 1 43 0
 135 0006 0026     		movs	r6, #0
  44:main.c        ****     char ch;
  45:main.c        ****  
  46:main.c        ****     (void)file; /* Parameter is not used, suppress unused argument warning */
  47:main.c        ****     while(count > 0) {
 136              		.loc 1 47 0
 137 0008 12E0     		b	.L11
 138              	.LVL11:
 139              	.L14:
  48:main.c        ****         ch = UART_1_GetChar();
 140              		.loc 1 48 0
 141 000a FFF7FEFF 		bl	UART_1_GetChar
 142              	.LVL12:
  49:main.c        ****         if(ch != 0) {
 143              		.loc 1 49 0
 144 000e 0546     		mov	r5, r0
 145 0010 70B1     		cbz	r0, .L11
  50:main.c        ****             UART_1_PutChar(ch);
 146              		.loc 1 50 0
 147 0012 FFF7FEFF 		bl	UART_1_PutChar
 148              	.LVL13:
  51:main.c        ****             chs++;
 149              		.loc 1 51 0
 150 0016 0136     		adds	r6, r6, #1
 151              	.LVL14:
  52:main.c        ****             if(ch == '\r') {
 152              		.loc 1 52 0
 153 0018 0D2D     		cmp	r5, #13
 154 001a 03D1     		bne	.L12
 155              	.LVL15:
  53:main.c        ****                 ch = '\n';
  54:main.c        ****                 UART_1_PutChar(ch);
 156              		.loc 1 54 0
 157 001c 0A20     		movs	r0, #10
 158 001e FFF7FEFF 		bl	UART_1_PutChar
 159              	.LVL16:
  53:main.c        ****                 ch = '\n';
 160              		.loc 1 53 0
 161 0022 0A25     		movs	r5, #10
 162              	.LVL17:
 163              	.L12:
  55:main.c        ****             }
  56:main.c        ****             *ptr++ = ch;
 164              		.loc 1 56 0
 165 0024 7B1C     		adds	r3, r7, #1
 166              	.LVL18:
 167 0026 3D70     		strb	r5, [r7]
  57:main.c        ****             count--;
 168              		.loc 1 57 0
ARM GAS  C:\Users\vedranb\AppData\Local\Temp\ccvGpKxJ.s 			page 5


 169 0028 013C     		subs	r4, r4, #1
 170              	.LVL19:
  58:main.c        ****             if(ch == '\n') break;
 171              		.loc 1 58 0
 172 002a 0A2D     		cmp	r5, #10
 173 002c 02D0     		beq	.L13
  56:main.c        ****             count--;
 174              		.loc 1 56 0
 175 002e 1F46     		mov	r7, r3
 176              	.LVL20:
 177              	.L11:
  47:main.c        ****         ch = UART_1_GetChar();
 178              		.loc 1 47 0
 179 0030 002C     		cmp	r4, #0
 180 0032 EADC     		bgt	.L14
 181              	.LVL21:
 182              	.L13:
  59:main.c        ****         }
  60:main.c        ****     }
  61:main.c        ****     return chs;
  62:main.c        **** }
 183              		.loc 1 62 0
 184 0034 3046     		mov	r0, r6
 185 0036 F8BD     		pop	{r3, r4, r5, r6, r7, pc}
 186              		.cfi_endproc
 187              	.LFE65:
 188              		.size	_read, .-_read
 189              		.text
 190              	.Letext0:
 191              		.file 2 "c:\\program files (x86)\\cypress\\psoc creator\\4.0\\psoc creator\\import\\gnu\\arm\\4.9.
 192              		.file 3 "c:\\program files (x86)\\cypress\\psoc creator\\4.0\\psoc creator\\import\\gnu\\arm\\4.9.
 193              		.file 4 "Generated_Source\\PSoC5/cytypes.h"
 194              		.file 5 "Generated_Source\\PSoC5/core_cm3.h"
 195              		.file 6 "Generated_Source\\PSoC5/UART_1.h"