ARM GAS  C:\Users\vedranb\AppData\Local\Temp\ccXMC66G.s 			page 1


   1              		.syntax unified
   2              		.cpu cortex-m3
   3              		.fpu softvfp
   4              		.eabi_attribute 20, 1
   5              		.eabi_attribute 21, 1
   6              		.eabi_attribute 23, 3
   7              		.eabi_attribute 24, 1
   8              		.eabi_attribute 25, 1
   9              		.eabi_attribute 26, 1
  10              		.eabi_attribute 30, 1
  11              		.eabi_attribute 34, 1
  12              		.eabi_attribute 18, 4
  13              		.thumb
  14              		.file	"battery_check.c"
  15              		.text
  16              	.Ltext0:
  17              		.cfi_sections	.debug_frame
  18              		.section	.text.readBattery,"ax",%progbits
  19              		.align	2
  20              		.global	readBattery
  21              		.thumb
  22              		.thumb_func
  23              		.type	readBattery, %function
  24              	readBattery:
  25              	.LFB63:
  26              		.file 1 "battery_check.c"
   1:battery_check.c **** /* ========================================
   2:battery_check.c ****  *
   3:battery_check.c ****  * Copyright YOUR COMPANY, THE YEAR
   4:battery_check.c ****  * All Rights Reserved
   5:battery_check.c ****  * UNPUBLISHED, LICENSED SOFTWARE.
   6:battery_check.c ****  *
   7:battery_check.c ****  * CONFIDENTIAL AND PROPRIETARY INFORMATION
   8:battery_check.c ****  * WHICH IS THE PROPERTY OF your company.
   9:battery_check.c ****  *
  10:battery_check.c ****  * ========================================
  11:battery_check.c **** */
  12:battery_check.c **** #include "project.h"
  13:battery_check.c **** #include <stdio.h>
  14:battery_check.c **** 
  15:battery_check.c **** 
  16:battery_check.c **** int readBattery(void){
  27              		.loc 1 16 0
  28              		.cfi_startproc
  29              		@ args = 0, pretend = 0, frame = 0
  30              		@ frame_needed = 0, uses_anonymous_args = 0
  31              		@ link register save eliminated.
  17:battery_check.c ****     
  18:battery_check.c ****     return 2800; //TODO: replace with actual battery reading code;
  19:battery_check.c **** }
  32              		.loc 1 19 0
  33 0000 4FF42F60 		mov	r0, #2800
  34 0004 7047     		bx	lr
  35              		.cfi_endproc
  36              	.LFE63:
  37              		.size	readBattery, .-readBattery
  38 0006 00BF     		.section	.text.battery_check,"ax",%progbits
ARM GAS  C:\Users\vedranb\AppData\Local\Temp\ccXMC66G.s 			page 2


  39              		.align	2
  40              		.global	battery_check
  41              		.thumb
  42              		.thumb_func
  43              		.type	battery_check, %function
  44              	battery_check:
  45              	.LFB64:
  20:battery_check.c **** 
  21:battery_check.c **** 
  22:battery_check.c **** int battery_check(void){
  46              		.loc 1 22 0
  47              		.cfi_startproc
  48              		@ args = 0, pretend = 0, frame = 0
  49              		@ frame_needed = 0, uses_anonymous_args = 0
  50 0000 08B5     		push	{r3, lr}
  51              		.cfi_def_cfa_offset 8
  52              		.cfi_offset 3, -8
  53              		.cfi_offset 14, -4
  54              	.LVL0:
  23:battery_check.c ****     int vBatMin=2185;
  24:battery_check.c ****     
  25:battery_check.c ****     int vBat=readBattery();
  55              		.loc 1 25 0
  56 0002 FFF7FEFF 		bl	readBattery
  57              	.LVL1:
  26:battery_check.c ****     
  27:battery_check.c ****     while(vBat > vBatMin){
  58              		.loc 1 27 0
  59 0006 40F68903 		movw	r3, #2185
  60 000a 9842     		cmp	r0, r3
  61 000c 01DD     		ble	.L4
  28:battery_check.c ****         return 1;
  62              		.loc 1 28 0
  63 000e 0120     		movs	r0, #1
  64              	.LVL2:
  65 0010 08BD     		pop	{r3, pc}
  66              	.LVL3:
  67              	.L4:
  29:battery_check.c ****     }
  30:battery_check.c ****     return 0;
  68              		.loc 1 30 0
  69 0012 0020     		movs	r0, #0
  70              	.LVL4:
  31:battery_check.c **** }
  71              		.loc 1 31 0
  72 0014 08BD     		pop	{r3, pc}
  73              		.cfi_endproc
  74              	.LFE64:
  75              		.size	battery_check, .-battery_check
  76              		.global	__aeabi_i2f
  77              		.global	__aeabi_fsub
  78              		.global	__aeabi_fdiv
  79 0016 00BF     		.section	.text.battery_level,"ax",%progbits
  80              		.align	2
  81              		.global	battery_level
  82              		.thumb
  83              		.thumb_func
ARM GAS  C:\Users\vedranb\AppData\Local\Temp\ccXMC66G.s 			page 3


  84              		.type	battery_level, %function
  85              	battery_level:
  86              	.LFB65:
  32:battery_check.c **** 
  33:battery_check.c **** float battery_level(void){
  87              		.loc 1 33 0
  88              		.cfi_startproc
  89              		@ args = 0, pretend = 0, frame = 0
  90              		@ frame_needed = 0, uses_anonymous_args = 0
  91 0000 08B5     		push	{r3, lr}
  92              		.cfi_def_cfa_offset 8
  93              		.cfi_offset 3, -8
  94              		.cfi_offset 14, -4
  95              	.LVL5:
  34:battery_check.c ****     int vBatMax=3055;
  35:battery_check.c ****     int vBatMin=2185;
  36:battery_check.c ****     
  37:battery_check.c ****     int vBat = readBattery();
  96              		.loc 1 37 0
  97 0002 FFF7FEFF 		bl	readBattery
  98              	.LVL6:
  38:battery_check.c **** 
  39:battery_check.c ****     return ((float) vBat - vBatMin)/((float) vBatMax - vBatMin);
  99              		.loc 1 39 0
 100 0006 FFF7FEFF 		bl	__aeabi_i2f
 101              	.LVL7:
 102 000a 0349     		ldr	r1, .L8
 103 000c FFF7FEFF 		bl	__aeabi_fsub
 104              	.LVL8:
 105 0010 0249     		ldr	r1, .L8+4
 106 0012 FFF7FEFF 		bl	__aeabi_fdiv
 107              	.LVL9:
  40:battery_check.c **** 
  41:battery_check.c **** }
 108              		.loc 1 41 0
 109 0016 08BD     		pop	{r3, pc}
 110              	.L9:
 111              		.align	2
 112              	.L8:
 113 0018 00900845 		.word	1158189056
 114 001c 00805944 		.word	1146716160
 115              		.cfi_endproc
 116              	.LFE65:
 117              		.size	battery_level, .-battery_level
 118              		.text
 119              	.Letext0:
 120              		.file 2 "c:\\program files (x86)\\cypress\\psoc creator\\4.0\\psoc creator\\import\\gnu\\arm\\4.9.
 121              		.file 3 "c:\\program files (x86)\\cypress\\psoc creator\\4.0\\psoc creator\\import\\gnu\\arm\\4.9.
 122              		.file 4 "Generated_Source\\PSoC5/core_cm3.h"