ARM GAS  C:\Users\vedranb\AppData\Local\Temp\ccj2nado.s 			page 1


   1              		.syntax unified
   2              		.cpu cortex-m3
   3              		.fpu softvfp
   4              		.eabi_attribute 20, 1
   5              		.eabi_attribute 21, 1
   6              		.eabi_attribute 23, 3
   7              		.eabi_attribute 24, 1
   8              		.eabi_attribute 25, 1
   9              		.eabi_attribute 26, 1
  10              		.eabi_attribute 30, 1
  11              		.eabi_attribute 34, 1
  12              		.eabi_attribute 18, 4
  13              		.thumb
  14              		.file	"main.c"
  15              		.text
  16              	.Ltext0:
  17              		.cfi_sections	.debug_frame
  18              		.section	.text.main,"ax",%progbits
  19              		.align	2
  20              		.global	main
  21              		.thumb
  22              		.thumb_func
  23              		.type	main, %function
  24              	main:
  25              	.LFB63:
  26              		.file 1 "main.c"
   1:main.c        **** /* ========================================
   2:main.c        ****  *
   3:main.c        ****  * Copyright YOUR COMPANY, THE YEAR
   4:main.c        ****  * All Rights Reserved
   5:main.c        ****  * UNPUBLISHED, LICENSED SOFTWARE.
   6:main.c        ****  *
   7:main.c        ****  * CONFIDENTIAL AND PROPRIETARY INFORMATION
   8:main.c        ****  * WHICH IS THE PROPERTY OF your company.
   9:main.c        ****  *
  10:main.c        ****  * ========================================
  11:main.c        **** */
  12:main.c        **** #include "project.h"
  13:main.c        **** #include <stdio.h>
  14:main.c        **** #include "battery_check.h"
  15:main.c        **** 
  16:main.c        **** int main(void)
  17:main.c        **** {
  27              		.loc 1 17 0
  28              		.cfi_startproc
  29              		@ Volatile: function does not return.
  30              		@ args = 0, pretend = 0, frame = 0
  31              		@ frame_needed = 0, uses_anonymous_args = 0
  32 0000 08B5     		push	{r3, lr}
  33              		.cfi_def_cfa_offset 8
  34              		.cfi_offset 3, -8
  35              		.cfi_offset 14, -4
  18:main.c        ****     CyGlobalIntEnable; /* Enable global interrupts. */
  36              		.loc 1 18 0
  37              	@ 18 "main.c" 1
  38 0002 62B6     		CPSIE   i
  39              	@ 0 "" 2
ARM GAS  C:\Users\vedranb\AppData\Local\Temp\ccj2nado.s 			page 2


  19:main.c        **** 
  20:main.c        ****     /* Place your initialization/startup code here (e.g. MyInst_Start()) */
  21:main.c        ****     UART_1_Start();
  40              		.loc 1 21 0
  41              		.thumb
  42 0004 FFF7FEFF 		bl	UART_1_Start
  43              	.LVL0:
  22:main.c        ****     printf("\n\n Execution started \n\n");
  44              		.loc 1 22 0
  45 0008 0248     		ldr	r0, .L4
  46 000a FFF7FEFF 		bl	puts
  47              	.LVL1:
  48              	.L2:
  23:main.c        ****     
  24:main.c        ****     
  25:main.c        ****     while(1)
  26:main.c        ****     {
  27:main.c        ****         while(battery_check()){
  49              		.loc 1 27 0 discriminator 1
  50 000e FFF7FEFF 		bl	battery_check
  51              	.LVL2:
  52 0012 FCE7     		b	.L2
  53              	.L5:
  54              		.align	2
  55              	.L4:
  56 0014 00000000 		.word	.LC0
  57              		.cfi_endproc
  58              	.LFE63:
  59              		.size	main, .-main
  60              		.section	.text._write,"ax",%progbits
  61              		.align	2
  62              		.global	_write
  63              		.thumb
  64              		.thumb_func
  65              		.type	_write, %function
  66              	_write:
  67              	.LFB64:
  28:main.c        ****         
  29:main.c        ****         }        
  30:main.c        ****     }//while(1)
  31:main.c        **** }
  32:main.c        **** 
  33:main.c        **** int _write(int file, char *ptr, int len)
  34:main.c        **** {
  68              		.loc 1 34 0
  69              		.cfi_startproc
  70              		@ args = 0, pretend = 0, frame = 0
  71              		@ frame_needed = 0, uses_anonymous_args = 0
  72              	.LVL3:
  73 0000 F8B5     		push	{r3, r4, r5, r6, r7, lr}
  74              		.cfi_def_cfa_offset 24
  75              		.cfi_offset 3, -24
  76              		.cfi_offset 4, -20
  77              		.cfi_offset 5, -16
  78              		.cfi_offset 6, -12
  79              		.cfi_offset 7, -8
  80              		.cfi_offset 14, -4
ARM GAS  C:\Users\vedranb\AppData\Local\Temp\ccj2nado.s 			page 3


  81 0002 0C46     		mov	r4, r1
  82 0004 1746     		mov	r7, r2
  83              	.LVL4:
  35:main.c        ****     (void)file; /* Parameter is not used, suppress unused argument warning */
  36:main.c        **** 	int n;
  37:main.c        **** 	for(n = 0; n < len; n++) {
  84              		.loc 1 37 0
  85 0006 0025     		movs	r5, #0
  86 0008 0BE0     		b	.L7
  87              	.LVL5:
  88              	.L9:
  38:main.c        ****         if(*ptr == '\n') UART_1_PutChar('\r');
  89              		.loc 1 38 0
  90 000a 2378     		ldrb	r3, [r4]	@ zero_extendqisi2
  91 000c 0A2B     		cmp	r3, #10
  92 000e 02D1     		bne	.L8
  93              		.loc 1 38 0 is_stmt 0 discriminator 1
  94 0010 0D20     		movs	r0, #13
  95 0012 FFF7FEFF 		bl	UART_1_PutChar
  96              	.LVL6:
  97              	.L8:
  39:main.c        **** 		UART_1_PutChar(*ptr++);
  98              		.loc 1 39 0 is_stmt 1 discriminator 2
  99 0016 661C     		adds	r6, r4, #1
 100              	.LVL7:
 101 0018 2078     		ldrb	r0, [r4]	@ zero_extendqisi2
 102 001a FFF7FEFF 		bl	UART_1_PutChar
 103              	.LVL8:
  37:main.c        ****         if(*ptr == '\n') UART_1_PutChar('\r');
 104              		.loc 1 37 0 discriminator 2
 105 001e 0135     		adds	r5, r5, #1
 106              	.LVL9:
 107              		.loc 1 39 0 discriminator 2
 108 0020 3446     		mov	r4, r6
 109              	.LVL10:
 110              	.L7:
  37:main.c        ****         if(*ptr == '\n') UART_1_PutChar('\r');
 111              		.loc 1 37 0 discriminator 1
 112 0022 BD42     		cmp	r5, r7
 113 0024 F1DB     		blt	.L9
  40:main.c        **** 	}
  41:main.c        **** 	return len;
  42:main.c        **** }
 114              		.loc 1 42 0
 115 0026 3846     		mov	r0, r7
 116 0028 F8BD     		pop	{r3, r4, r5, r6, r7, pc}
 117              		.cfi_endproc
 118              	.LFE64:
 119              		.size	_write, .-_write
 120 002a 00BF     		.section	.text._read,"ax",%progbits
 121              		.align	2
 122              		.global	_read
 123              		.thumb
 124              		.thumb_func
 125              		.type	_read, %function
 126              	_read:
 127              	.LFB65:
ARM GAS  C:\Users\vedranb\AppData\Local\Temp\ccj2nado.s 			page 4


  43:main.c        **** 
  44:main.c        **** int _read (int file, char *ptr, int count)
  45:main.c        **** {
 128              		.loc 1 45 0
 129              		.cfi_startproc
 130              		@ args = 0, pretend = 0, frame = 0
 131              		@ frame_needed = 0, uses_anonymous_args = 0
 132              	.LVL11:
 133 0000 F8B5     		push	{r3, r4, r5, r6, r7, lr}
 134              		.cfi_def_cfa_offset 24
 135              		.cfi_offset 3, -24
 136              		.cfi_offset 4, -20
 137              		.cfi_offset 5, -16
 138              		.cfi_offset 6, -12
 139              		.cfi_offset 7, -8
 140              		.cfi_offset 14, -4
 141 0002 0F46     		mov	r7, r1
 142 0004 1446     		mov	r4, r2
 143              	.LVL12:
  46:main.c        ****     int chs = 0;
 144              		.loc 1 46 0
 145 0006 0026     		movs	r6, #0
  47:main.c        ****     char ch;
  48:main.c        ****  
  49:main.c        ****     (void)file; /* Parameter is not used, suppress unused argument warning */
  50:main.c        ****     while(count > 0) {
 146              		.loc 1 50 0
 147 0008 12E0     		b	.L13
 148              	.LVL13:
 149              	.L16:
  51:main.c        ****         ch = UART_1_GetChar();
 150              		.loc 1 51 0
 151 000a FFF7FEFF 		bl	UART_1_GetChar
 152              	.LVL14:
  52:main.c        ****         if(ch != 0) {
 153              		.loc 1 52 0
 154 000e 0546     		mov	r5, r0
 155 0010 70B1     		cbz	r0, .L13
  53:main.c        ****             UART_1_PutChar(ch);
 156              		.loc 1 53 0
 157 0012 FFF7FEFF 		bl	UART_1_PutChar
 158              	.LVL15:
  54:main.c        ****             chs++;
 159              		.loc 1 54 0
 160 0016 0136     		adds	r6, r6, #1
 161              	.LVL16:
  55:main.c        ****             if(ch == '\r') {
 162              		.loc 1 55 0
 163 0018 0D2D     		cmp	r5, #13
 164 001a 03D1     		bne	.L14
 165              	.LVL17:
  56:main.c        ****                 ch = '\n';
  57:main.c        ****                 UART_1_PutChar(ch);
 166              		.loc 1 57 0
 167 001c 0A20     		movs	r0, #10
 168 001e FFF7FEFF 		bl	UART_1_PutChar
 169              	.LVL18:
ARM GAS  C:\Users\vedranb\AppData\Local\Temp\ccj2nado.s 			page 5


  56:main.c        ****                 ch = '\n';
 170              		.loc 1 56 0
 171 0022 0A25     		movs	r5, #10
 172              	.LVL19:
 173              	.L14:
  58:main.c        ****             }
  59:main.c        ****             *ptr++ = ch;
 174              		.loc 1 59 0
 175 0024 7B1C     		adds	r3, r7, #1
 176              	.LVL20:
 177 0026 3D70     		strb	r5, [r7]
  60:main.c        ****             count--;
 178              		.loc 1 60 0
 179 0028 013C     		subs	r4, r4, #1
 180              	.LVL21:
  61:main.c        ****             if(ch == '\n') break;
 181              		.loc 1 61 0
 182 002a 0A2D     		cmp	r5, #10
 183 002c 02D0     		beq	.L15
  59:main.c        ****             count--;
 184              		.loc 1 59 0
 185 002e 1F46     		mov	r7, r3
 186              	.LVL22:
 187              	.L13:
  50:main.c        ****         ch = UART_1_GetChar();
 188              		.loc 1 50 0
 189 0030 002C     		cmp	r4, #0
 190 0032 EADC     		bgt	.L16
 191              	.LVL23:
 192              	.L15:
  62:main.c        ****         }
  63:main.c        ****     }
  64:main.c        ****     return chs;
  65:main.c        **** }
 193              		.loc 1 65 0
 194 0034 3046     		mov	r0, r6
 195 0036 F8BD     		pop	{r3, r4, r5, r6, r7, pc}
 196              		.cfi_endproc
 197              	.LFE65:
 198              		.size	_read, .-_read
 199              		.section	.rodata.str1.4,"aMS",%progbits,1
 200              		.align	2
 201              	.LC0:
 202 0000 0A0A2045 		.ascii	"\012\012 Execution started \012\000"
 202      78656375 
 202      74696F6E 
 202      20737461 
 202      72746564 
 203 0017 00       		.text
 204              	.Letext0:
 205              		.file 2 "c:\\program files (x86)\\cypress\\psoc creator\\4.0\\psoc creator\\import\\gnu\\arm\\4.9.
 206              		.file 3 "c:\\program files (x86)\\cypress\\psoc creator\\4.0\\psoc creator\\import\\gnu\\arm\\4.9.
 207              		.file 4 "Generated_Source\\PSoC5/cytypes.h"
 208              		.file 5 "battery_check.h"
 209              		.file 6 "Generated_Source\\PSoC5/UART_1.h"
 210              		.file 7 "Generated_Source\\PSoC5/core_cm3.h"
 211              		.file 8 "<built-in>"
ARM GAS  C:\Users\vedranb\AppData\Local\Temp\ccj2nado.s 			page 6

