ARM GAS  C:\Users\vedranb\AppData\Local\Temp\ccv9Izc6.s 			page 1


   1              		.syntax unified
   2              		.cpu cortex-m3
   3              		.fpu softvfp
   4              		.eabi_attribute 20, 1
   5              		.eabi_attribute 21, 1
   6              		.eabi_attribute 23, 3
   7              		.eabi_attribute 24, 1
   8              		.eabi_attribute 25, 1
   9              		.eabi_attribute 26, 1
  10              		.eabi_attribute 30, 1
  11              		.eabi_attribute 34, 1
  12              		.eabi_attribute 18, 4
  13              		.thumb
  14              		.file	"common_functions.c"
  15              		.text
  16              	.Ltext0:
  17              		.cfi_sections	.debug_frame
  18              		.section	.text.readInt,"ax",%progbits
  19              		.align	2
  20              		.global	readInt
  21              		.thumb
  22              		.thumb_func
  23              		.type	readInt, %function
  24              	readInt:
  25              	.LFB63:
  26              		.file 1 "common_functions.c"
   1:common_functions.c **** /* ========================================
   2:common_functions.c ****  *
   3:common_functions.c ****  * Copyright YOUR COMPANY, THE YEAR
   4:common_functions.c ****  * All Rights Reserved
   5:common_functions.c ****  * UNPUBLISHED, LICENSED SOFTWARE.
   6:common_functions.c ****  *
   7:common_functions.c ****  * CONFIDENTIAL AND PROPRIETARY INFORMATION
   8:common_functions.c ****  * WHICH IS THE PROPERTY OF your company.
   9:common_functions.c ****  *
  10:common_functions.c ****  * ========================================
  11:common_functions.c **** */
  12:common_functions.c **** //Exercise 1
  13:common_functions.c **** #include "project.h"
  14:common_functions.c **** #include <stdio.h>
  15:common_functions.c **** 
  16:common_functions.c **** int readInt(void){
  27              		.loc 1 16 0
  28              		.cfi_startproc
  29              		@ args = 0, pretend = 0, frame = 8
  30              		@ frame_needed = 0, uses_anonymous_args = 0
  31 0000 00B5     		push	{lr}
  32              		.cfi_def_cfa_offset 4
  33              		.cfi_offset 14, -4
  34 0002 83B0     		sub	sp, sp, #12
  35              		.cfi_def_cfa_offset 16
  17:common_functions.c ****     int i;
  18:common_functions.c ****     while(scanf("%d", &i) != 1){
  36              		.loc 1 18 0
  37 0004 10E0     		b	.L2
  38              	.L5:
  19:common_functions.c ****         getchar();
ARM GAS  C:\Users\vedranb\AppData\Local\Temp\ccv9Izc6.s 			page 2


  39              		.loc 1 19 0
  40 0006 0D4B     		ldr	r3, .L7
  41 0008 1A68     		ldr	r2, [r3]
  42 000a 5168     		ldr	r1, [r2, #4]
  43 000c 4B68     		ldr	r3, [r1, #4]
  44 000e 013B     		subs	r3, r3, #1
  45 0010 4B60     		str	r3, [r1, #4]
  46 0012 002B     		cmp	r3, #0
  47 0014 04DA     		bge	.L3
  48              		.loc 1 19 0 is_stmt 0 discriminator 1
  49 0016 1046     		mov	r0, r2
  50 0018 5168     		ldr	r1, [r2, #4]
  51 001a FFF7FEFF 		bl	__srget_r
  52              	.LVL0:
  53 001e 03E0     		b	.L2
  54              	.L3:
  55              		.loc 1 19 0 discriminator 2
  56 0020 5268     		ldr	r2, [r2, #4]
  57 0022 1368     		ldr	r3, [r2]
  58 0024 0133     		adds	r3, r3, #1
  59 0026 1360     		str	r3, [r2]
  60              	.L2:
  18:common_functions.c ****         getchar();
  61              		.loc 1 18 0 is_stmt 1
  62 0028 0548     		ldr	r0, .L7+4
  63 002a 01A9     		add	r1, sp, #4
  64 002c FFF7FEFF 		bl	scanf
  65              	.LVL1:
  66 0030 0128     		cmp	r0, #1
  67 0032 E8D1     		bne	.L5
  20:common_functions.c ****     }
  21:common_functions.c ****     return i;
  22:common_functions.c **** }
  68              		.loc 1 22 0
  69 0034 0198     		ldr	r0, [sp, #4]
  70 0036 03B0     		add	sp, sp, #12
  71              		.cfi_def_cfa_offset 4
  72              		@ sp needed
  73 0038 5DF804FB 		ldr	pc, [sp], #4
  74              	.L8:
  75              		.align	2
  76              	.L7:
  77 003c 00000000 		.word	_impure_ptr
  78 0040 00000000 		.word	.LC0
  79              		.cfi_endproc
  80              	.LFE63:
  81              		.size	readInt, .-readInt
  82              		.section	.text.readFloat,"ax",%progbits
  83              		.align	2
  84              		.global	readFloat
  85              		.thumb
  86              		.thumb_func
  87              		.type	readFloat, %function
  88              	readFloat:
  89              	.LFB64:
  23:common_functions.c **** 
  24:common_functions.c **** float readFloat(void){
ARM GAS  C:\Users\vedranb\AppData\Local\Temp\ccv9Izc6.s 			page 3


  90              		.loc 1 24 0
  91              		.cfi_startproc
  92              		@ args = 0, pretend = 0, frame = 8
  93              		@ frame_needed = 0, uses_anonymous_args = 0
  94 0000 00B5     		push	{lr}
  95              		.cfi_def_cfa_offset 4
  96              		.cfi_offset 14, -4
  97 0002 83B0     		sub	sp, sp, #12
  98              		.cfi_def_cfa_offset 16
  25:common_functions.c ****     float f;
  26:common_functions.c ****     scanf("%f", &f);
  99              		.loc 1 26 0
 100 0004 0348     		ldr	r0, .L11
 101 0006 01A9     		add	r1, sp, #4
 102 0008 FFF7FEFF 		bl	scanf
 103              	.LVL2:
  27:common_functions.c ****     return f;
  28:common_functions.c **** }
 104              		.loc 1 28 0
 105 000c 0198     		ldr	r0, [sp, #4]	@ float
 106 000e 03B0     		add	sp, sp, #12
 107              		.cfi_def_cfa_offset 4
 108              		@ sp needed
 109 0010 5DF804FB 		ldr	pc, [sp], #4
 110              	.L12:
 111              		.align	2
 112              	.L11:
 113 0014 04000000 		.word	.LC1
 114              		.cfi_endproc
 115              	.LFE64:
 116              		.size	readFloat, .-readFloat
 117              		.section	.rodata.str1.4,"aMS",%progbits,1
 118              		.align	2
 119              	.LC0:
 120 0000 256400   		.ascii	"%d\000"
 121 0003 00       		.space	1
 122              	.LC1:
 123 0004 256600   		.ascii	"%f\000"
 124 0007 00       		.text
 125              	.Letext0:
 126              		.file 2 "c:\\program files (x86)\\cypress\\psoc creator\\4.0\\psoc creator\\import\\gnu\\arm\\4.9.
 127              		.file 3 "c:\\program files (x86)\\cypress\\psoc creator\\4.0\\psoc creator\\import\\gnu\\arm\\4.9.
 128              		.file 4 "c:\\program files (x86)\\cypress\\psoc creator\\4.0\\psoc creator\\import\\gnu\\arm\\4.9.
 129              		.file 5 "c:\\program files (x86)\\cypress\\psoc creator\\4.0\\psoc creator\\import\\gnu\\arm\\4.9.
 130              		.file 6 "c:\\program files (x86)\\cypress\\psoc creator\\4.0\\psoc creator\\import\\gnu\\arm\\4.9.
 131              		.file 7 "c:\\program files (x86)\\cypress\\psoc creator\\4.0\\psoc creator\\import\\gnu\\arm\\4.9.
 132              		.file 8 "c:\\program files (x86)\\cypress\\psoc creator\\4.0\\psoc creator\\import\\gnu\\arm\\4.9.
 133              		.file 9 "Generated_Source\\PSoC5/core_cm3.h"