ARM GAS  C:\Users\vedranb\AppData\Local\Temp\cc6i6djy.s 			page 1


   1              		.syntax unified
   2              		.cpu cortex-m3
   3              		.fpu softvfp
   4              		.eabi_attribute 20, 1
   5              		.eabi_attribute 21, 1
   6              		.eabi_attribute 23, 3
   7              		.eabi_attribute 24, 1
   8              		.eabi_attribute 25, 1
   9              		.eabi_attribute 26, 1
  10              		.eabi_attribute 30, 1
  11              		.eabi_attribute 34, 1
  12              		.eabi_attribute 18, 4
  13              		.thumb
  14              		.file	"exercise8.c"
  15              		.text
  16              	.Ltext0:
  17              		.cfi_sections	.debug_frame
  18              		.section	.text.exercise8,"ax",%progbits
  19              		.align	2
  20              		.global	exercise8
  21              		.thumb
  22              		.thumb_func
  23              		.type	exercise8, %function
  24              	exercise8:
  25              	.LFB63:
  26              		.file 1 "exercise8.c"
   1:exercise8.c   **** /* ========================================
   2:exercise8.c   ****  *
   3:exercise8.c   ****  * Copyright YOUR COMPANY, THE YEAR
   4:exercise8.c   ****  * All Rights Reserved
   5:exercise8.c   ****  * UNPUBLISHED, LICENSED SOFTWARE.
   6:exercise8.c   ****  *
   7:exercise8.c   ****  * CONFIDENTIAL AND PROPRIETARY INFORMATION
   8:exercise8.c   ****  * WHICH IS THE PROPERTY OF your company.
   9:exercise8.c   ****  *
  10:exercise8.c   ****  * ========================================
  11:exercise8.c   **** */
  12:exercise8.c   **** #include "project.h"
  13:exercise8.c   **** #include <stdio.h>
  14:exercise8.c   **** #include "common_functions.h"
  15:exercise8.c   **** 
  16:exercise8.c   **** #define ARRSIZE 10
  17:exercise8.c   **** 
  18:exercise8.c   **** void exercise8(void)
  19:exercise8.c   **** {
  27              		.loc 1 19 0
  28              		.cfi_startproc
  29              		@ args = 0, pretend = 0, frame = 0
  30              		@ frame_needed = 0, uses_anonymous_args = 0
  31 0000 70B5     		push	{r4, r5, r6, lr}
  32              		.cfi_def_cfa_offset 16
  33              		.cfi_offset 4, -16
  34              		.cfi_offset 5, -12
  35              		.cfi_offset 6, -8
  36              		.cfi_offset 14, -4
  20:exercise8.c   ****      //Exercise 8
  21:exercise8.c   ****     printf("\n\nExercise 8. \n\n");
ARM GAS  C:\Users\vedranb\AppData\Local\Temp\cc6i6djy.s 			page 2


  37              		.loc 1 21 0
  38 0002 1048     		ldr	r0, .L6
  39 0004 FFF7FEFF 		bl	puts
  40              	.LVL0:
  22:exercise8.c   **** 
  23:exercise8.c   ****     //define the array size constant (used in multiple places in code)
  24:exercise8.c   **** 
  25:exercise8.c   **** 
  26:exercise8.c   **** 
  27:exercise8.c   ****     // use the constant to initialize the array size
  28:exercise8.c   ****     int arr[ARRSIZE] = {0};
  29:exercise8.c   ****     int sum = 0;
  30:exercise8.c   ****     int i = 0;
  31:exercise8.c   **** 
  32:exercise8.c   ****     //loop through the array elements
  33:exercise8.c   ****     //use the constant to limit the loop cycle
  34:exercise8.c   ****     for(i=0; i < ARRSIZE; i++){
  41              		.loc 1 34 0
  42 0008 0025     		movs	r5, #0
  29:exercise8.c   ****     int i = 0;
  43              		.loc 1 29 0
  44 000a 2E46     		mov	r6, r5
  45              		.loc 1 34 0
  46 000c 0EE0     		b	.L2
  47              	.LVL1:
  48              	.L4:
  35:exercise8.c   ****         //assign the value once, but check the value at the end and repeat if necessary
  36:exercise8.c   ****         do{
  37:exercise8.c   ****             printf("Enter value for element %d:", i);
  49              		.loc 1 37 0
  50 000e 0E48     		ldr	r0, .L6+4
  51 0010 2946     		mov	r1, r5
  52 0012 FFF7FEFF 		bl	printf
  53              	.LVL2:
  38:exercise8.c   ****             arr[i] = readInt();
  54              		.loc 1 38 0
  55 0016 FFF7FEFF 		bl	readInt
  56              	.LVL3:
  39:exercise8.c   **** 
  40:exercise8.c   ****             //check the value and print error if necessary, otherwies use the opportunity to
  41:exercise8.c   ****             //add the number to the sum.
  42:exercise8.c   ****             if(arr[i] < 0){
  57              		.loc 1 42 0
  58 001a 041E     		subs	r4, r0, #0
  59 001c 02DA     		bge	.L3
  43:exercise8.c   ****                 printf("Error: the number must be positive!, please try again.\n");
  60              		.loc 1 43 0
  61 001e 0B48     		ldr	r0, .L6+8
  62 0020 FFF7FEFF 		bl	puts
  63              	.LVL4:
  64              	.L3:
  44:exercise8.c   ****             }            
  45:exercise8.c   ****         }while(arr[i] < 0);
  65              		.loc 1 45 0
  66 0024 002C     		cmp	r4, #0
  67 0026 F2DB     		blt	.L4
  46:exercise8.c   ****         
ARM GAS  C:\Users\vedranb\AppData\Local\Temp\cc6i6djy.s 			page 3


  47:exercise8.c   ****         sum += arr[i];
  68              		.loc 1 47 0 discriminator 2
  69 0028 2644     		add	r6, r6, r4
  70              	.LVL5:
  34:exercise8.c   ****         //assign the value once, but check the value at the end and repeat if necessary
  71              		.loc 1 34 0 discriminator 2
  72 002a 0135     		adds	r5, r5, #1
  73              	.LVL6:
  74              	.L2:
  34:exercise8.c   ****         //assign the value once, but check the value at the end and repeat if necessary
  75              		.loc 1 34 0 is_stmt 0 discriminator 1
  76 002c 092D     		cmp	r5, #9
  77 002e EEDD     		ble	.L4
  48:exercise8.c   ****     }
  49:exercise8.c   ****     //using the constant again
  50:exercise8.c   ****     printf("The sum of %d elements in array is %d\n", ARRSIZE, sum);
  78              		.loc 1 50 0 is_stmt 1
  79 0030 0748     		ldr	r0, .L6+12
  80 0032 0A21     		movs	r1, #10
  81 0034 3246     		mov	r2, r6
  82 0036 FFF7FEFF 		bl	printf
  83              	.LVL7:
  51:exercise8.c   **** 
  52:exercise8.c   ****     printf("\nEnd of Exercise 8. \n\n");
  84              		.loc 1 52 0
  85 003a 0648     		ldr	r0, .L6+16
  86 003c FFF7FEFF 		bl	puts
  87              	.LVL8:
  88 0040 70BD     		pop	{r4, r5, r6, pc}
  89              	.LVL9:
  90              	.L7:
  91 0042 00BF     		.align	2
  92              	.L6:
  93 0044 00000000 		.word	.LC0
  94 0048 10000000 		.word	.LC1
  95 004c 2C000000 		.word	.LC2
  96 0050 64000000 		.word	.LC3
  97 0054 8C000000 		.word	.LC4
  98              		.cfi_endproc
  99              	.LFE63:
 100              		.size	exercise8, .-exercise8
 101              		.section	.rodata.str1.4,"aMS",%progbits,1
 102              		.align	2
 103              	.LC0:
 104 0000 0A0A4578 		.ascii	"\012\012Exercise 8. \012\000"
 104      65726369 
 104      73652038 
 104      2E200A00 
 105              	.LC1:
 106 0010 456E7465 		.ascii	"Enter value for element %d:\000"
 106      72207661 
 106      6C756520 
 106      666F7220 
 106      656C656D 
 107              	.LC2:
 108 002c 4572726F 		.ascii	"Error: the number must be positive!, please try aga"
 108      723A2074 
ARM GAS  C:\Users\vedranb\AppData\Local\Temp\cc6i6djy.s 			page 4


 108      6865206E 
 108      756D6265 
 108      72206D75 
 109 005f 696E2E00 		.ascii	"in.\000"
 110 0063 00       		.space	1
 111              	.LC3:
 112 0064 54686520 		.ascii	"The sum of %d elements in array is %d\012\000"
 112      73756D20 
 112      6F662025 
 112      6420656C 
 112      656D656E 
 113 008b 00       		.space	1
 114              	.LC4:
 115 008c 0A456E64 		.ascii	"\012End of Exercise 8. \012\000"
 115      206F6620 
 115      45786572 
 115      63697365 
 115      20382E20 
 116 00a2 0000     		.text
 117              	.Letext0:
 118              		.file 2 "c:\\program files (x86)\\cypress\\psoc creator\\4.0\\psoc creator\\import\\gnu\\arm\\4.9.
 119              		.file 3 "c:\\program files (x86)\\cypress\\psoc creator\\4.0\\psoc creator\\import\\gnu\\arm\\4.9.
 120              		.file 4 "Generated_Source\\PSoC5/core_cm3.h"
 121              		.file 5 "<built-in>"
 122              		.file 6 "c:\\program files (x86)\\cypress\\psoc creator\\4.0\\psoc creator\\import\\gnu\\arm\\4.9.
 123              		.file 7 "common_functions.h"