ARM GAS  C:\Users\vedranb\AppData\Local\Temp\ccUU6Bnd.s 			page 1


   1              		.syntax unified
   2              		.cpu cortex-m3
   3              		.fpu softvfp
   4              		.eabi_attribute 20, 1
   5              		.eabi_attribute 21, 1
   6              		.eabi_attribute 23, 3
   7              		.eabi_attribute 24, 1
   8              		.eabi_attribute 25, 1
   9              		.eabi_attribute 26, 1
  10              		.eabi_attribute 30, 1
  11              		.eabi_attribute 34, 1
  12              		.eabi_attribute 18, 4
  13              		.thumb
  14              		.file	"exercise10.c"
  15              		.text
  16              	.Ltext0:
  17              		.cfi_sections	.debug_frame
  18              		.global	__aeabi_fmul
  19              		.global	__aeabi_f2d
  20              		.global	__aeabi_fadd
  21              		.section	.text.exercise10,"ax",%progbits
  22              		.align	2
  23              		.global	exercise10
  24              		.thumb
  25              		.thumb_func
  26              		.type	exercise10, %function
  27              	exercise10:
  28              	.LFB63:
  29              		.file 1 "exercise10.c"
   1:exercise10.c  **** /* ========================================
   2:exercise10.c  ****  *
   3:exercise10.c  ****  * Copyright YOUR COMPANY, THE YEAR
   4:exercise10.c  ****  * All Rights Reserved
   5:exercise10.c  ****  * UNPUBLISHED, LICENSED SOFTWARE.
   6:exercise10.c  ****  *
   7:exercise10.c  ****  * CONFIDENTIAL AND PROPRIETARY INFORMATION
   8:exercise10.c  ****  * WHICH IS THE PROPERTY OF your company.
   9:exercise10.c  ****  *
  10:exercise10.c  ****  * ========================================
  11:exercise10.c  **** */
  12:exercise10.c  **** #include "project.h"
  13:exercise10.c  **** #include <stdio.h>
  14:exercise10.c  **** #include "common_functions.h"
  15:exercise10.c  **** 
  16:exercise10.c  **** void exercise10(void)
  17:exercise10.c  **** {
  30              		.loc 1 17 0
  31              		.cfi_startproc
  32              		@ args = 0, pretend = 0, frame = 0
  33              		@ frame_needed = 0, uses_anonymous_args = 0
  34 0000 70B5     		push	{r4, r5, r6, lr}
  35              		.cfi_def_cfa_offset 16
  36              		.cfi_offset 4, -16
  37              		.cfi_offset 5, -12
  38              		.cfi_offset 6, -8
  39              		.cfi_offset 14, -4
  18:exercise10.c  ****      //Exercise 10
ARM GAS  C:\Users\vedranb\AppData\Local\Temp\ccUU6Bnd.s 			page 2


  19:exercise10.c  ****     printf("\n\nExercise 10. \n\n");
  40              		.loc 1 19 0
  41 0002 1D48     		ldr	r0, .L8
  42 0004 FFF7FEFF 		bl	puts
  43              	.LVL0:
  20:exercise10.c  ****     
  21:exercise10.c  ****     float a = 0, b = 0;
  44              		.loc 1 21 0
  45 0008 0025     		movs	r5, #0
  46 000a 2E46     		mov	r6, r5
  47              	.LVL1:
  48              	.L6:
  22:exercise10.c  ****     int menu = 0;
  23:exercise10.c  ****     
  24:exercise10.c  ****     do{
  25:exercise10.c  ****         printf("\n\nPlease select operation:\n1) Enter operands\n2) Multiply operands\n3) Add opera
  49              		.loc 1 25 0
  50 000c 1B48     		ldr	r0, .L8+4
  51 000e FFF7FEFF 		bl	puts
  52              	.LVL2:
  26:exercise10.c  ****         menu = readInt();
  53              		.loc 1 26 0
  54 0012 FFF7FEFF 		bl	readInt
  55              	.LVL3:
  56 0016 0446     		mov	r4, r0
  57              	.LVL4:
  27:exercise10.c  ****         switch(menu){
  58              		.loc 1 27 0
  59 0018 0228     		cmp	r0, #2
  60 001a 10D0     		beq	.L3
  61 001c 0328     		cmp	r0, #3
  62 001e 1AD0     		beq	.L4
  63 0020 0128     		cmp	r0, #1
  64 0022 23D1     		bne	.L2
  28:exercise10.c  ****         case 1:
  29:exercise10.c  ****             printf("Enter the first operand:");
  65              		.loc 1 29 0
  66 0024 1648     		ldr	r0, .L8+8
  67              	.LVL5:
  68 0026 FFF7FEFF 		bl	printf
  69              	.LVL6:
  30:exercise10.c  ****             a = readFloat();
  70              		.loc 1 30 0
  71 002a FFF7FEFF 		bl	readFloat
  72              	.LVL7:
  73 002e 0646     		mov	r6, r0
  74              	.LVL8:
  31:exercise10.c  ****             printf("Enter the second operand:");
  75              		.loc 1 31 0
  76 0030 1448     		ldr	r0, .L8+12
  77              	.LVL9:
  78 0032 FFF7FEFF 		bl	printf
  79              	.LVL10:
  32:exercise10.c  ****             b = readFloat();
  80              		.loc 1 32 0
  81 0036 FFF7FEFF 		bl	readFloat
  82              	.LVL11:
ARM GAS  C:\Users\vedranb\AppData\Local\Temp\ccUU6Bnd.s 			page 3


  83 003a 0546     		mov	r5, r0
  84              	.LVL12:
  33:exercise10.c  ****             break;
  85              		.loc 1 33 0
  86 003c 16E0     		b	.L2
  87              	.LVL13:
  88              	.L3:
  34:exercise10.c  ****         case 2:
  35:exercise10.c  ****             printf("Product is %.2f\n", a * b);
  89              		.loc 1 35 0
  90 003e 3046     		mov	r0, r6
  91              	.LVL14:
  92 0040 2946     		mov	r1, r5
  93 0042 FFF7FEFF 		bl	__aeabi_fmul
  94              	.LVL15:
  95 0046 FFF7FEFF 		bl	__aeabi_f2d
  96              	.LVL16:
  97 004a 0246     		mov	r2, r0
  98 004c 0B46     		mov	r3, r1
  99 004e 0E48     		ldr	r0, .L8+16
 100 0050 FFF7FEFF 		bl	printf
 101              	.LVL17:
  36:exercise10.c  ****             break;
 102              		.loc 1 36 0
 103 0054 0AE0     		b	.L2
 104              	.LVL18:
 105              	.L4:
  37:exercise10.c  ****         case 3:
  38:exercise10.c  ****             printf("Sum is %.2f\n", a + b);
 106              		.loc 1 38 0
 107 0056 3046     		mov	r0, r6
 108              	.LVL19:
 109 0058 2946     		mov	r1, r5
 110 005a FFF7FEFF 		bl	__aeabi_fadd
 111              	.LVL20:
 112 005e FFF7FEFF 		bl	__aeabi_f2d
 113              	.LVL21:
 114 0062 0246     		mov	r2, r0
 115 0064 0B46     		mov	r3, r1
 116 0066 0948     		ldr	r0, .L8+20
 117 0068 FFF7FEFF 		bl	printf
 118              	.LVL22:
 119              	.L2:
  39:exercise10.c  ****             break;
  40:exercise10.c  ****         default:
  41:exercise10.c  ****             break;
  42:exercise10.c  ****         }
  43:exercise10.c  ****     } while (menu != 4);
 120              		.loc 1 43 0
 121 006c 042C     		cmp	r4, #4
 122 006e CDD1     		bne	.L6
  44:exercise10.c  ****             
  45:exercise10.c  ****     
  46:exercise10.c  ****     
  47:exercise10.c  ****     
  48:exercise10.c  ****     printf("\nEnd of Exercise 10. \n\n");
 123              		.loc 1 48 0
ARM GAS  C:\Users\vedranb\AppData\Local\Temp\ccUU6Bnd.s 			page 4


 124 0070 0748     		ldr	r0, .L8+24
 125 0072 FFF7FEFF 		bl	puts
 126              	.LVL23:
 127 0076 70BD     		pop	{r4, r5, r6, pc}
 128              	.LVL24:
 129              	.L9:
 130              		.align	2
 131              	.L8:
 132 0078 00000000 		.word	.LC0
 133 007c 14000000 		.word	.LC1
 134 0080 70000000 		.word	.LC2
 135 0084 8C000000 		.word	.LC3
 136 0088 A8000000 		.word	.LC4
 137 008c BC000000 		.word	.LC5
 138 0090 CC000000 		.word	.LC6
 139              		.cfi_endproc
 140              	.LFE63:
 141              		.size	exercise10, .-exercise10
 142              		.section	.rodata.str1.4,"aMS",%progbits,1
 143              		.align	2
 144              	.LC0:
 145 0000 0A0A4578 		.ascii	"\012\012Exercise 10. \012\000"
 145      65726369 
 145      73652031 
 145      302E200A 
 145      00
 146 0011 000000   		.space	3
 147              	.LC1:
 148 0014 0A0A506C 		.ascii	"\012\012Please select operation:\0121) Enter operan"
 148      65617365 
 148      2073656C 
 148      65637420 
 148      6F706572 
 149 003e 64730A32 		.ascii	"ds\0122) Multiply operands\0123) Add operands\0124)"
 149      29204D75 
 149      6C746970 
 149      6C79206F 
 149      70657261 
 150 0068 20517569 		.ascii	" Quit\000"
 150      7400
 151 006e 0000     		.space	2
 152              	.LC2:
 153 0070 456E7465 		.ascii	"Enter the first operand:\000"
 153      72207468 
 153      65206669 
 153      72737420 
 153      6F706572 
 154 0089 000000   		.space	3
 155              	.LC3:
 156 008c 456E7465 		.ascii	"Enter the second operand:\000"
 156      72207468 
 156      65207365 
 156      636F6E64 
 156      206F7065 
 157 00a6 0000     		.space	2
 158              	.LC4:
 159 00a8 50726F64 		.ascii	"Product is %.2f\012\000"
ARM GAS  C:\Users\vedranb\AppData\Local\Temp\ccUU6Bnd.s 			page 5


 159      75637420 
 159      69732025 
 159      2E32660A 
 159      00
 160 00b9 000000   		.space	3
 161              	.LC5:
 162 00bc 53756D20 		.ascii	"Sum is %.2f\012\000"
 162      69732025 
 162      2E32660A 
 162      00
 163 00c9 000000   		.space	3
 164              	.LC6:
 165 00cc 0A456E64 		.ascii	"\012End of Exercise 10. \012\000"
 165      206F6620 
 165      45786572 
 165      63697365 
 165      2031302E 
 166 00e3 00       		.text
 167              	.Letext0:
 168              		.file 2 "c:\\program files (x86)\\cypress\\psoc creator\\4.0\\psoc creator\\import\\gnu\\arm\\4.9.
 169              		.file 3 "c:\\program files (x86)\\cypress\\psoc creator\\4.0\\psoc creator\\import\\gnu\\arm\\4.9.
 170              		.file 4 "common_functions.h"
 171              		.file 5 "Generated_Source\\PSoC5/core_cm3.h"
 172              		.file 6 "<built-in>"
 173              		.file 7 "c:\\program files (x86)\\cypress\\psoc creator\\4.0\\psoc creator\\import\\gnu\\arm\\4.9.