ARM GAS  C:\Users\vedranb\AppData\Local\Temp\cc1KOH32.s 			page 1


   1              		.syntax unified
   2              		.cpu cortex-m3
   3              		.fpu softvfp
   4              		.eabi_attribute 20, 1
   5              		.eabi_attribute 21, 1
   6              		.eabi_attribute 23, 3
   7              		.eabi_attribute 24, 1
   8              		.eabi_attribute 25, 1
   9              		.eabi_attribute 26, 1
  10              		.eabi_attribute 30, 1
  11              		.eabi_attribute 34, 1
  12              		.eabi_attribute 18, 4
  13              		.thumb
  14              		.file	"exercise14.c"
  15              		.text
  16              	.Ltext0:
  17              		.cfi_sections	.debug_frame
  18              		.section	.text.getvalue,"ax",%progbits
  19              		.align	2
  20              		.global	getvalue
  21              		.thumb
  22              		.thumb_func
  23              		.type	getvalue, %function
  24              	getvalue:
  25              	.LFB63:
  26              		.file 1 "exercise14.c"
   1:exercise14.c  **** /* ========================================
   2:exercise14.c  ****  *
   3:exercise14.c  ****  * Copyright YOUR COMPANY, THE YEAR
   4:exercise14.c  ****  * All Rights Reserved
   5:exercise14.c  ****  * UNPUBLISHED, LICENSED SOFTWARE.
   6:exercise14.c  ****  *
   7:exercise14.c  ****  * CONFIDENTIAL AND PROPRIETARY INFORMATION
   8:exercise14.c  ****  * WHICH IS THE PROPERTY OF your company.
   9:exercise14.c  ****  *
  10:exercise14.c  ****  * ========================================
  11:exercise14.c  **** */
  12:exercise14.c  **** #include "project.h"
  13:exercise14.c  **** #include <stdio.h>
  14:exercise14.c  **** #include "common_functions.h"
  15:exercise14.c  **** 
  16:exercise14.c  **** 
  17:exercise14.c  **** int getvalue(int low, int high){
  27              		.loc 1 17 0
  28              		.cfi_startproc
  29              		@ args = 0, pretend = 0, frame = 0
  30              		@ frame_needed = 0, uses_anonymous_args = 0
  31              	.LVL0:
  32 0000 70B5     		push	{r4, r5, r6, lr}
  33              		.cfi_def_cfa_offset 16
  34              		.cfi_offset 4, -16
  35              		.cfi_offset 5, -12
  36              		.cfi_offset 6, -8
  37              		.cfi_offset 14, -4
  38 0002 0546     		mov	r5, r0
  39 0004 0E46     		mov	r6, r1
  40              	.LVL1:
ARM GAS  C:\Users\vedranb\AppData\Local\Temp\cc1KOH32.s 			page 2


  41              	.L4:
  18:exercise14.c  ****     int value;
  19:exercise14.c  **** 
  20:exercise14.c  ****     do{
  21:exercise14.c  ****         printf("Please enter the value between %d and %d\n", low, high);
  42              		.loc 1 21 0
  43 0006 0A48     		ldr	r0, .L6
  44 0008 2946     		mov	r1, r5
  45 000a 3246     		mov	r2, r6
  46 000c FFF7FEFF 		bl	printf
  47              	.LVL2:
  22:exercise14.c  ****         value = readInt();
  48              		.loc 1 22 0
  49 0010 FFF7FEFF 		bl	readInt
  50              	.LVL3:
  51 0014 0446     		mov	r4, r0
  52              	.LVL4:
  23:exercise14.c  ****         if(value < low || value > high){
  53              		.loc 1 23 0
  54 0016 A842     		cmp	r0, r5
  55 0018 01DB     		blt	.L2
  56              		.loc 1 23 0 is_stmt 0 discriminator 1
  57 001a B042     		cmp	r0, r6
  58 001c 02DD     		ble	.L3
  59              	.L2:
  24:exercise14.c  ****             printf("Error, please respect the boundaries, try again\n");
  60              		.loc 1 24 0 is_stmt 1
  61 001e 0548     		ldr	r0, .L6+4
  62              	.LVL5:
  63 0020 FFF7FEFF 		bl	puts
  64              	.LVL6:
  65              	.L3:
  25:exercise14.c  ****         }
  26:exercise14.c  ****     }
  27:exercise14.c  ****     while(value < low || value > high);
  66              		.loc 1 27 0
  67 0024 AC42     		cmp	r4, r5
  68 0026 EEDB     		blt	.L4
  69              		.loc 1 27 0 is_stmt 0 discriminator 1
  70 0028 B442     		cmp	r4, r6
  71 002a ECDC     		bgt	.L4
  28:exercise14.c  **** 
  29:exercise14.c  ****     return value;
  30:exercise14.c  **** }
  72              		.loc 1 30 0 is_stmt 1
  73 002c 2046     		mov	r0, r4
  74 002e 70BD     		pop	{r4, r5, r6, pc}
  75              	.LVL7:
  76              	.L7:
  77              		.align	2
  78              	.L6:
  79 0030 00000000 		.word	.LC0
  80 0034 2C000000 		.word	.LC1
  81              		.cfi_endproc
  82              	.LFE63:
  83              		.size	getvalue, .-getvalue
  84              		.section	.text.exercise14,"ax",%progbits
ARM GAS  C:\Users\vedranb\AppData\Local\Temp\cc1KOH32.s 			page 3


  85              		.align	2
  86              		.global	exercise14
  87              		.thumb
  88              		.thumb_func
  89              		.type	exercise14, %function
  90              	exercise14:
  91              	.LFB64:
  31:exercise14.c  **** 
  32:exercise14.c  **** void exercise14(void)
  33:exercise14.c  **** {
  92              		.loc 1 33 0
  93              		.cfi_startproc
  94              		@ args = 0, pretend = 0, frame = 0
  95              		@ frame_needed = 0, uses_anonymous_args = 0
  96 0000 10B5     		push	{r4, lr}
  97              		.cfi_def_cfa_offset 8
  98              		.cfi_offset 4, -8
  99              		.cfi_offset 14, -4
  34:exercise14.c  ****      //Exercise 14
  35:exercise14.c  ****     printf("\n\nExercise 14. \n\n");
 100              		.loc 1 35 0
 101 0002 0C48     		ldr	r0, .L10
 102 0004 FFF7FEFF 		bl	puts
 103              	.LVL8:
  36:exercise14.c  ****     int a, b;
  37:exercise14.c  **** 
  38:exercise14.c  ****     a = getvalue(10,20);
 104              		.loc 1 38 0
 105 0008 0A20     		movs	r0, #10
 106 000a 1421     		movs	r1, #20
 107 000c FFF7FEFF 		bl	getvalue
 108              	.LVL9:
 109 0010 0446     		mov	r4, r0
 110              	.LVL10:
  39:exercise14.c  ****     b = getvalue(0,5);
 111              		.loc 1 39 0
 112 0012 0020     		movs	r0, #0
 113              	.LVL11:
 114 0014 0521     		movs	r1, #5
 115 0016 FFF7FEFF 		bl	getvalue
 116              	.LVL12:
 117 001a 0346     		mov	r3, r0
 118              	.LVL13:
  40:exercise14.c  **** 
  41:exercise14.c  ****     printf("%d multiplied by %d is %d.\n", a, b, a * b);
 119              		.loc 1 41 0
 120 001c 0648     		ldr	r0, .L10+4
 121              	.LVL14:
 122 001e 2146     		mov	r1, r4
 123 0020 1A46     		mov	r2, r3
 124 0022 03FB04F3 		mul	r3, r3, r4
 125              	.LVL15:
 126 0026 FFF7FEFF 		bl	printf
 127              	.LVL16:
  42:exercise14.c  **** 
  43:exercise14.c  ****     printf("\nEnd of Exercise 14. \n\n");
 128              		.loc 1 43 0
ARM GAS  C:\Users\vedranb\AppData\Local\Temp\cc1KOH32.s 			page 4


 129 002a 0448     		ldr	r0, .L10+8
 130 002c FFF7FEFF 		bl	puts
 131              	.LVL17:
 132 0030 10BD     		pop	{r4, pc}
 133              	.LVL18:
 134              	.L11:
 135 0032 00BF     		.align	2
 136              	.L10:
 137 0034 5C000000 		.word	.LC2
 138 0038 70000000 		.word	.LC3
 139 003c 8C000000 		.word	.LC4
 140              		.cfi_endproc
 141              	.LFE64:
 142              		.size	exercise14, .-exercise14
 143              		.section	.rodata.str1.4,"aMS",%progbits,1
 144              		.align	2
 145              	.LC0:
 146 0000 506C6561 		.ascii	"Please enter the value between %d and %d\012\000"
 146      73652065 
 146      6E746572 
 146      20746865 
 146      2076616C 
 147 002a 0000     		.space	2
 148              	.LC1:
 149 002c 4572726F 		.ascii	"Error, please respect the boundaries, try again\000"
 149      722C2070 
 149      6C656173 
 149      65207265 
 149      73706563 
 150              	.LC2:
 151 005c 0A0A4578 		.ascii	"\012\012Exercise 14. \012\000"
 151      65726369 
 151      73652031 
 151      342E200A 
 151      00
 152 006d 000000   		.space	3
 153              	.LC3:
 154 0070 2564206D 		.ascii	"%d multiplied by %d is %d.\012\000"
 154      756C7469 
 154      706C6965 
 154      64206279 
 154      20256420 
 155              	.LC4:
 156 008c 0A456E64 		.ascii	"\012End of Exercise 14. \012\000"
 156      206F6620 
 156      45786572 
 156      63697365 
 156      2031342E 
 157 00a3 00       		.text
 158              	.Letext0:
 159              		.file 2 "c:\\program files (x86)\\cypress\\psoc creator\\4.0\\psoc creator\\import\\gnu\\arm\\4.9.
 160              		.file 3 "c:\\program files (x86)\\cypress\\psoc creator\\4.0\\psoc creator\\import\\gnu\\arm\\4.9.
 161              		.file 4 "c:\\program files (x86)\\cypress\\psoc creator\\4.0\\psoc creator\\import\\gnu\\arm\\4.9.
 162              		.file 5 "<built-in>"
 163              		.file 6 "Generated_Source\\PSoC5/core_cm3.h"
 164              		.file 7 "common_functions.h"