ARM GAS  C:\Users\vedranb\AppData\Local\Temp\cczHEJej.s 			page 1


   1              		.syntax unified
   2              		.cpu cortex-m3
   3              		.fpu softvfp
   4              		.eabi_attribute 20, 1
   5              		.eabi_attribute 21, 1
   6              		.eabi_attribute 23, 3
   7              		.eabi_attribute 24, 1
   8              		.eabi_attribute 25, 1
   9              		.eabi_attribute 26, 1
  10              		.eabi_attribute 30, 1
  11              		.eabi_attribute 34, 1
  12              		.eabi_attribute 18, 4
  13              		.thumb
  14              		.file	"exercise20.c"
  15              		.text
  16              	.Ltext0:
  17              		.cfi_sections	.debug_frame
  18              		.section	.text.printMonth,"ax",%progbits
  19              		.align	2
  20              		.global	printMonth
  21              		.thumb
  22              		.thumb_func
  23              		.type	printMonth, %function
  24              	printMonth:
  25              	.LFB63:
  26              		.file 1 "exercise20.c"
   1:exercise20.c  **** /* ========================================
   2:exercise20.c  ****  *
   3:exercise20.c  ****  * Copyright YOUR COMPANY, THE YEAR
   4:exercise20.c  ****  * All Rights Reserved
   5:exercise20.c  ****  * UNPUBLISHED, LICENSED SOFTWARE.
   6:exercise20.c  ****  *
   7:exercise20.c  ****  * CONFIDENTIAL AND PROPRIETARY INFORMATION
   8:exercise20.c  ****  * WHICH IS THE PROPERTY OF your company.
   9:exercise20.c  ****  *
  10:exercise20.c  ****  * ========================================
  11:exercise20.c  **** */
  12:exercise20.c  **** #include "project.h"
  13:exercise20.c  **** #include <stdio.h>
  14:exercise20.c  **** 
  15:exercise20.c  **** #define MAX_M_NAME_LENGTH 16
  16:exercise20.c  **** 
  17:exercise20.c  **** struct month{
  18:exercise20.c  ****     char name[MAX_M_NAME_LENGTH];
  19:exercise20.c  ****     int  number;
  20:exercise20.c  **** }newMonth, Months[12], *nextMonth;
  21:exercise20.c  **** 
  22:exercise20.c  **** void printMonth(struct month * m){
  27              		.loc 1 22 0
  28              		.cfi_startproc
  29              		@ args = 0, pretend = 0, frame = 0
  30              		@ frame_needed = 0, uses_anonymous_args = 0
  31              	.LVL0:
  32 0000 08B5     		push	{r3, lr}
  33              		.cfi_def_cfa_offset 8
  34              		.cfi_offset 3, -8
  35              		.cfi_offset 14, -4
ARM GAS  C:\Users\vedranb\AppData\Local\Temp\cczHEJej.s 			page 2


  36 0002 0246     		mov	r2, r0
  23:exercise20.c  ****     printf("%-2d.\t%s\n", m->number, m->name);
  37              		.loc 1 23 0
  38 0004 0248     		ldr	r0, .L3
  39              	.LVL1:
  40 0006 1169     		ldr	r1, [r2, #16]
  41 0008 FFF7FEFF 		bl	printf
  42              	.LVL2:
  43 000c 08BD     		pop	{r3, pc}
  44              	.L4:
  45 000e 00BF     		.align	2
  46              	.L3:
  47 0010 00000000 		.word	.LC0
  48              		.cfi_endproc
  49              	.LFE63:
  50              		.size	printMonth, .-printMonth
  51              		.section	.text.exercise20,"ax",%progbits
  52              		.align	2
  53              		.global	exercise20
  54              		.thumb
  55              		.thumb_func
  56              		.type	exercise20, %function
  57              	exercise20:
  58              	.LFB64:
  24:exercise20.c  **** }
  25:exercise20.c  **** 
  26:exercise20.c  **** void exercise20(void)
  27:exercise20.c  **** {
  59              		.loc 1 27 0
  60              		.cfi_startproc
  61              		@ args = 0, pretend = 0, frame = 24
  62              		@ frame_needed = 0, uses_anonymous_args = 0
  63 0000 30B5     		push	{r4, r5, lr}
  64              		.cfi_def_cfa_offset 12
  65              		.cfi_offset 4, -12
  66              		.cfi_offset 5, -8
  67              		.cfi_offset 14, -4
  68 0002 87B0     		sub	sp, sp, #28
  69              		.cfi_def_cfa_offset 40
  28:exercise20.c  ****     printf("\n\nExercise 20. \n\n");
  70              		.loc 1 28 0
  71 0004 4648     		ldr	r0, .L25
  72 0006 FFF7FEFF 		bl	puts
  73              	.LVL3:
  29:exercise20.c  **** 
  30:exercise20.c  ****     int monthNo, done=0,op=0;
  74              		.loc 1 30 0
  75 000a 0025     		movs	r5, #0
  76 000c 0495     		str	r5, [sp, #16]
  31:exercise20.c  ****     char monthName[MAX_M_NAME_LENGTH];
  32:exercise20.c  **** 
  33:exercise20.c  ****     while(!done){
  77              		.loc 1 33 0
  78 000e 6BE0     		b	.L6
  79              	.LVL4:
  80              	.L19:
  34:exercise20.c  ****         printf("Please select operation:\n1:\tEnter Month\n2:\tFinished entering months\n");
ARM GAS  C:\Users\vedranb\AppData\Local\Temp\cczHEJej.s 			page 3


  81              		.loc 1 34 0
  82 0010 4448     		ldr	r0, .L25+4
  83 0012 FFF7FEFF 		bl	puts
  84              	.LVL5:
  35:exercise20.c  ****         scanf("%d", &op);
  85              		.loc 1 35 0
  86 0016 4448     		ldr	r0, .L25+8
  87 0018 04A9     		add	r1, sp, #16
  88 001a FFF7FEFF 		bl	scanf
  89              	.LVL6:
  36:exercise20.c  **** 
  37:exercise20.c  ****         switch(op){
  90              		.loc 1 37 0
  91 001e 049B     		ldr	r3, [sp, #16]
  92 0020 012B     		cmp	r3, #1
  93 0022 02D0     		beq	.L8
  94 0024 022B     		cmp	r3, #2
  95 0026 5ED0     		beq	.L23
  96 0028 5EE0     		b	.L6
  97              	.L8:
  98              	.LBB2:
  38:exercise20.c  ****             case 1:
  39:exercise20.c  ****                 do{
  40:exercise20.c  ****                     unsigned i;
  41:exercise20.c  ****                     printf("Enter Month number\n");
  99              		.loc 1 41 0
 100 002a 4048     		ldr	r0, .L25+12
 101 002c FFF7FEFF 		bl	puts
 102              	.LVL7:
  42:exercise20.c  ****                     scanf("%d", &monthNo);
 103              		.loc 1 42 0
 104 0030 3D48     		ldr	r0, .L25+8
 105 0032 05A9     		add	r1, sp, #20
 106 0034 FFF7FEFF 		bl	scanf
 107              	.LVL8:
  43:exercise20.c  ****                     //check if month is in valid range
  44:exercise20.c  ****                     if(monthNo > 0 && monthNo < 13){
 108              		.loc 1 44 0
 109 0038 059A     		ldr	r2, [sp, #20]
 110 003a 531E     		subs	r3, r2, #1
 111 003c 0B2B     		cmp	r3, #11
 112 003e 4AD8     		bhi	.L10
 113              	.LBB3:
  45:exercise20.c  ****                         Months[monthNo-1].number = monthNo; //assign the month.number
 114              		.loc 1 45 0
 115 0040 03EB8303 		add	r3, r3, r3, lsl #2
 116 0044 9B00     		lsls	r3, r3, #2
 117 0046 3A49     		ldr	r1, .L25+16
 118 0048 0B44     		add	r3, r3, r1
 119 004a 1A61     		str	r2, [r3, #16]
  46:exercise20.c  ****                         printf("Enter month Name\n");
 120              		.loc 1 46 0
 121 004c 3948     		ldr	r0, .L25+20
 122 004e FFF7FEFF 		bl	puts
 123              	.LVL9:
 124              	.L14:
  47:exercise20.c  **** 
ARM GAS  C:\Users\vedranb\AppData\Local\Temp\cczHEJej.s 			page 4


  48:exercise20.c  ****                         //clear line feed
  49:exercise20.c  ****                         int c;
  50:exercise20.c  ****                         while ( (c = getchar()) != EOF && c != '\n') { }
 125              		.loc 1 50 0 discriminator 6
 126 0052 394B     		ldr	r3, .L25+24
 127 0054 1A68     		ldr	r2, [r3]
 128 0056 5168     		ldr	r1, [r2, #4]
 129 0058 4B68     		ldr	r3, [r1, #4]
 130 005a 013B     		subs	r3, r3, #1
 131 005c 4B60     		str	r3, [r1, #4]
 132 005e 002B     		cmp	r3, #0
 133 0060 04DA     		bge	.L11
 134              		.loc 1 50 0 is_stmt 0 discriminator 1
 135 0062 1046     		mov	r0, r2
 136 0064 5168     		ldr	r1, [r2, #4]
 137 0066 FFF7FEFF 		bl	__srget_r
 138              	.LVL10:
 139 006a 04E0     		b	.L12
 140              	.L11:
 141              		.loc 1 50 0 discriminator 2
 142 006c 5268     		ldr	r2, [r2, #4]
 143 006e 1368     		ldr	r3, [r2]
 144 0070 591C     		adds	r1, r3, #1
 145 0072 1160     		str	r1, [r2]
 146 0074 1878     		ldrb	r0, [r3]	@ zero_extendqisi2
 147              	.L12:
 148              	.LVL11:
 149              		.loc 1 50 0 discriminator 4
 150 0076 B0F1FF3F 		cmp	r0, #-1
 151 007a 01D0     		beq	.L13
 152              		.loc 1 50 0 discriminator 5
 153 007c 0A28     		cmp	r0, #10
 154 007e E8D1     		bne	.L14
 155              	.L13:
  51:exercise20.c  ****                         //get month name
  52:exercise20.c  ****                         fgets(monthName, MAX_M_NAME_LENGTH, stdin);
 156              		.loc 1 52 0 is_stmt 1
 157 0080 2D4B     		ldr	r3, .L25+24
 158 0082 1B68     		ldr	r3, [r3]
 159 0084 6846     		mov	r0, sp
 160              	.LVL12:
 161 0086 1021     		movs	r1, #16
 162 0088 5A68     		ldr	r2, [r3, #4]
 163 008a FFF7FEFF 		bl	fgets
 164              	.LVL13:
  53:exercise20.c  ****                         if(monthName[strlen(monthName) - 1] == '\n') { monthName[strlen(monthName) 
 165              		.loc 1 53 0
 166 008e 6846     		mov	r0, sp
 167 0090 FFF7FEFF 		bl	strlen
 168              	.LVL14:
 169 0094 0138     		subs	r0, r0, #1
 170 0096 06AB     		add	r3, sp, #24
 171 0098 0344     		add	r3, r3, r0
 172 009a 13F8183C 		ldrb	r3, [r3, #-24]	@ zero_extendqisi2
 173 009e 0A2B     		cmp	r3, #10
 174 00a0 04D1     		bne	.L15
 175              		.loc 1 53 0 is_stmt 0 discriminator 1
ARM GAS  C:\Users\vedranb\AppData\Local\Temp\cczHEJej.s 			page 5


 176 00a2 06AB     		add	r3, sp, #24
 177 00a4 1844     		add	r0, r0, r3
 178 00a6 0023     		movs	r3, #0
 179 00a8 00F8183C 		strb	r3, [r0, #-24]
 180              	.L15:
 181              	.LBE3:
 182              	.LBE2:
  27:exercise20.c  ****     printf("\n\nExercise 20. \n\n");
 183              		.loc 1 27 0 is_stmt 1 discriminator 1
 184 00ac 0024     		movs	r4, #0
 185 00ae 0CE0     		b	.L16
 186              	.LVL15:
 187              	.L17:
 188              	.LBB5:
 189              	.LBB4:
  54:exercise20.c  **** 
  55:exercise20.c  ****                         for(i=0; i < strlen(monthName); i++){
  56:exercise20.c  ****                             Months[monthNo-1].name[i] = monthName[i];
 190              		.loc 1 56 0 discriminator 3
 191 00b0 059B     		ldr	r3, [sp, #20]
 192 00b2 013B     		subs	r3, r3, #1
 193 00b4 06AA     		add	r2, sp, #24
 194 00b6 2244     		add	r2, r2, r4
 195 00b8 12F8181C 		ldrb	r1, [r2, #-24]	@ zero_extendqisi2
 196 00bc 03EB8303 		add	r3, r3, r3, lsl #2
 197 00c0 9B00     		lsls	r3, r3, #2
 198 00c2 2344     		add	r3, r3, r4
 199 00c4 1A4A     		ldr	r2, .L25+16
 200 00c6 D154     		strb	r1, [r2, r3]
  55:exercise20.c  ****                             Months[monthNo-1].name[i] = monthName[i];
 201              		.loc 1 55 0 discriminator 3
 202 00c8 0134     		adds	r4, r4, #1
 203              	.LVL16:
 204              	.L16:
  55:exercise20.c  ****                             Months[monthNo-1].name[i] = monthName[i];
 205              		.loc 1 55 0 is_stmt 0 discriminator 1
 206 00ca 6846     		mov	r0, sp
 207 00cc FFF7FEFF 		bl	strlen
 208              	.LVL17:
 209 00d0 A042     		cmp	r0, r4
 210 00d2 EDD8     		bhi	.L17
 211 00d4 02E0     		b	.L18
 212              	.LVL18:
 213              	.L10:
 214              	.LBE4:
  57:exercise20.c  ****                         }
  58:exercise20.c  ****                     }
  59:exercise20.c  ****                     else{
  60:exercise20.c  ****                         printf("Month not in a valid range, please enter 1-12\n");
 215              		.loc 1 60 0 is_stmt 1
 216 00d6 1948     		ldr	r0, .L25+28
 217 00d8 FFF7FEFF 		bl	puts
 218              	.LVL19:
 219              	.L18:
 220              	.LBE5:
  61:exercise20.c  ****                     }
  62:exercise20.c  ****                 } while(monthNo < 1 || monthNo > 12);
ARM GAS  C:\Users\vedranb\AppData\Local\Temp\cczHEJej.s 			page 6


 221              		.loc 1 62 0
 222 00dc 059B     		ldr	r3, [sp, #20]
 223 00de 013B     		subs	r3, r3, #1
 224 00e0 0B2B     		cmp	r3, #11
 225 00e2 A2D8     		bhi	.L8
 226 00e4 00E0     		b	.L6
 227              	.L23:
  63:exercise20.c  **** 
  64:exercise20.c  ****                 break;
  65:exercise20.c  **** 
  66:exercise20.c  ****                 case 2:
  67:exercise20.c  ****                     done = 1;
 228              		.loc 1 67 0
 229 00e6 0125     		movs	r5, #1
 230              	.LVL20:
 231              	.L6:
  33:exercise20.c  ****         printf("Please select operation:\n1:\tEnter Month\n2:\tFinished entering months\n");
 232              		.loc 1 33 0
 233 00e8 002D     		cmp	r5, #0
 234 00ea 91D0     		beq	.L19
  68:exercise20.c  ****                     break;
  69:exercise20.c  ****         }
  70:exercise20.c  **** 
  71:exercise20.c  ****     }
  72:exercise20.c  **** 
  73:exercise20.c  ****     //print the months that have been entered
  74:exercise20.c  ****     printf("\nHere are the months that you have entered\n");
 235              		.loc 1 74 0
 236 00ec 1448     		ldr	r0, .L25+32
 237 00ee FFF7FEFF 		bl	puts
 238              	.LVL21:
  75:exercise20.c  **** 
  76:exercise20.c  ****     int i=0;
  77:exercise20.c  **** 
  78:exercise20.c  ****     for(i=0; i<13; i++){
 239              		.loc 1 78 0
 240 00f2 0024     		movs	r4, #0
 241 00f4 0DE0     		b	.L20
 242              	.LVL22:
 243              	.L22:
  79:exercise20.c  ****         if(strlen(Months[i].name) != 0){
 244              		.loc 1 79 0
 245 00f6 04EB8403 		add	r3, r4, r4, lsl #2
 246 00fa 9B00     		lsls	r3, r3, #2
 247 00fc 0C4A     		ldr	r2, .L25+16
 248 00fe 9B5C     		ldrb	r3, [r3, r2]	@ zero_extendqisi2
 249 0100 33B1     		cbz	r3, .L21
  80:exercise20.c  ****             printMonth(&Months[i]);
 250              		.loc 1 80 0
 251 0102 04EB8403 		add	r3, r4, r4, lsl #2
 252 0106 9B00     		lsls	r3, r3, #2
 253 0108 1046     		mov	r0, r2
 254 010a 1844     		add	r0, r0, r3
 255 010c FFF7FEFF 		bl	printMonth
 256              	.LVL23:
 257              	.L21:
  78:exercise20.c  ****         if(strlen(Months[i].name) != 0){
ARM GAS  C:\Users\vedranb\AppData\Local\Temp\cczHEJej.s 			page 7


 258              		.loc 1 78 0 discriminator 2
 259 0110 0134     		adds	r4, r4, #1
 260              	.LVL24:
 261              	.L20:
  78:exercise20.c  ****         if(strlen(Months[i].name) != 0){
 262              		.loc 1 78 0 is_stmt 0 discriminator 1
 263 0112 0C2C     		cmp	r4, #12
 264 0114 EFDD     		ble	.L22
  81:exercise20.c  ****         }
  82:exercise20.c  ****     }
  83:exercise20.c  **** 
  84:exercise20.c  ****     printf("End of Exercise 20 \n\n");
 265              		.loc 1 84 0 is_stmt 1
 266 0116 0B48     		ldr	r0, .L25+36
 267 0118 FFF7FEFF 		bl	puts
 268              	.LVL25:
  85:exercise20.c  ****     return;
  86:exercise20.c  **** }
 269              		.loc 1 86 0
 270 011c 07B0     		add	sp, sp, #28
 271              		.cfi_def_cfa_offset 12
 272              		@ sp needed
 273 011e 30BD     		pop	{r4, r5, pc}
 274              	.LVL26:
 275              	.L26:
 276              		.align	2
 277              	.L25:
 278 0120 0C000000 		.word	.LC1
 279 0124 20000000 		.word	.LC2
 280 0128 64000000 		.word	.LC3
 281 012c 68000000 		.word	.LC4
 282 0130 00000000 		.word	Months
 283 0134 7C000000 		.word	.LC5
 284 0138 00000000 		.word	_impure_ptr
 285 013c 90000000 		.word	.LC6
 286 0140 C0000000 		.word	.LC7
 287 0144 EC000000 		.word	.LC8
 288              		.cfi_endproc
 289              	.LFE64:
 290              		.size	exercise20, .-exercise20
 291              		.comm	nextMonth,4,4
 292              		.comm	Months,240,4
 293              		.comm	newMonth,20,4
 294              		.section	.rodata.str1.4,"aMS",%progbits,1
 295              		.align	2
 296              	.LC0:
 297 0000 252D3264 		.ascii	"%-2d.\011%s\012\000"
 297      2E092573 
 297      0A00
 298 000a 0000     		.space	2
 299              	.LC1:
 300 000c 0A0A4578 		.ascii	"\012\012Exercise 20. \012\000"
 300      65726369 
 300      73652032 
 300      302E200A 
 300      00
 301 001d 000000   		.space	3
ARM GAS  C:\Users\vedranb\AppData\Local\Temp\cczHEJej.s 			page 8


 302              	.LC2:
 303 0020 506C6561 		.ascii	"Please select operation:\0121:\011Enter Month\0122:"
 303      73652073 
 303      656C6563 
 303      74206F70 
 303      65726174 
 304 004a 0946696E 		.ascii	"\011Finished entering months\000"
 304      69736865 
 304      6420656E 
 304      74657269 
 304      6E67206D 
 305              	.LC3:
 306 0064 256400   		.ascii	"%d\000"
 307 0067 00       		.space	1
 308              	.LC4:
 309 0068 456E7465 		.ascii	"Enter Month number\000"
 309      72204D6F 
 309      6E746820 
 309      6E756D62 
 309      657200
 310 007b 00       		.space	1
 311              	.LC5:
 312 007c 456E7465 		.ascii	"Enter month Name\000"
 312      72206D6F 
 312      6E746820 
 312      4E616D65 
 312      00
 313 008d 000000   		.space	3
 314              	.LC6:
 315 0090 4D6F6E74 		.ascii	"Month not in a valid range, please enter 1-12\000"
 315      68206E6F 
 315      7420696E 
 315      20612076 
 315      616C6964 
 316 00be 0000     		.space	2
 317              	.LC7:
 318 00c0 0A486572 		.ascii	"\012Here are the months that you have entered\000"
 318      65206172 
 318      65207468 
 318      65206D6F 
 318      6E746873 
 319 00eb 00       		.space	1
 320              	.LC8:
 321 00ec 456E6420 		.ascii	"End of Exercise 20 \012\000"
 321      6F662045 
 321      78657263 
 321      69736520 
 321      3230200A 
 322 0101 000000   		.text
 323              	.Letext0:
 324              		.file 2 "c:\\program files (x86)\\cypress\\psoc creator\\4.0\\psoc creator\\import\\gnu\\arm\\4.9.
 325              		.file 3 "c:\\program files (x86)\\cypress\\psoc creator\\4.0\\psoc creator\\import\\gnu\\arm\\4.9.
 326              		.file 4 "c:\\program files (x86)\\cypress\\psoc creator\\4.0\\psoc creator\\import\\gnu\\arm\\4.9.
 327              		.file 5 "c:\\program files (x86)\\cypress\\psoc creator\\4.0\\psoc creator\\import\\gnu\\arm\\4.9.
 328              		.file 6 "c:\\program files (x86)\\cypress\\psoc creator\\4.0\\psoc creator\\import\\gnu\\arm\\4.9.
 329              		.file 7 "c:\\program files (x86)\\cypress\\psoc creator\\4.0\\psoc creator\\import\\gnu\\arm\\4.9.
 330              		.file 8 "c:\\program files (x86)\\cypress\\psoc creator\\4.0\\psoc creator\\import\\gnu\\arm\\4.9.
ARM GAS  C:\Users\vedranb\AppData\Local\Temp\cczHEJej.s 			page 9


 331              		.file 9 "Generated_Source\\PSoC5/core_cm3.h"
 332              		.file 10 "c:\\program files (x86)\\cypress\\psoc creator\\4.0\\psoc creator\\import\\gnu\\arm\\4.9
 333              		.file 11 "<built-in>"