ARM GAS  C:\Users\vedranb\AppData\Local\Temp\ccMqoqua.s 			page 1


   1              		.syntax unified
   2              		.cpu cortex-m3
   3              		.fpu softvfp
   4              		.eabi_attribute 20, 1
   5              		.eabi_attribute 21, 1
   6              		.eabi_attribute 23, 3
   7              		.eabi_attribute 24, 1
   8              		.eabi_attribute 25, 1
   9              		.eabi_attribute 26, 1
  10              		.eabi_attribute 30, 1
  11              		.eabi_attribute 34, 1
  12              		.eabi_attribute 18, 4
  13              		.thumb
  14              		.file	"exercise15.c"
  15              		.text
  16              	.Ltext0:
  17              		.cfi_sections	.debug_frame
  18              		.global	__aeabi_fcmple
  19              		.global	__aeabi_fdiv
  20              		.section	.text.compscale,"ax",%progbits
  21              		.align	2
  22              		.global	compscale
  23              		.thumb
  24              		.thumb_func
  25              		.type	compscale, %function
  26              	compscale:
  27              	.LFB63:
  28              		.file 1 "exercise15.c"
   1:exercise15.c  **** /* ========================================
   2:exercise15.c  ****  *
   3:exercise15.c  ****  * Copyright YOUR COMPANY, THE YEAR
   4:exercise15.c  ****  * All Rights Reserved
   5:exercise15.c  ****  * UNPUBLISHED, LICENSED SOFTWARE.
   6:exercise15.c  ****  *
   7:exercise15.c  ****  * CONFIDENTIAL AND PROPRIETARY INFORMATION
   8:exercise15.c  ****  * WHICH IS THE PROPERTY OF your company.
   9:exercise15.c  ****  *
  10:exercise15.c  ****  * ========================================
  11:exercise15.c  **** */
  12:exercise15.c  **** #include "project.h"
  13:exercise15.c  **** #include <stdio.h>
  14:exercise15.c  **** #include "common_functions.h"
  15:exercise15.c  **** 
  16:exercise15.c  **** 
  17:exercise15.c  **** void compscale(float *x, float *y){
  29              		.loc 1 17 0
  30              		.cfi_startproc
  31              		@ args = 0, pretend = 0, frame = 0
  32              		@ frame_needed = 0, uses_anonymous_args = 0
  33              	.LVL0:
  34 0000 F8B5     		push	{r3, r4, r5, r6, r7, lr}
  35              		.cfi_def_cfa_offset 24
  36              		.cfi_offset 3, -24
  37              		.cfi_offset 4, -20
  38              		.cfi_offset 5, -16
  39              		.cfi_offset 6, -12
  40              		.cfi_offset 7, -8
ARM GAS  C:\Users\vedranb\AppData\Local\Temp\ccMqoqua.s 			page 2


  41              		.cfi_offset 14, -4
  42 0002 0446     		mov	r4, r0
  43 0004 0D46     		mov	r5, r1
  18:exercise15.c  ****     if(*x <= *y){
  44              		.loc 1 18 0
  45 0006 0668     		ldr	r6, [r0]	@ float
  46 0008 0F68     		ldr	r7, [r1]	@ float
  47 000a 3046     		mov	r0, r6
  48              	.LVL1:
  49 000c 3946     		mov	r1, r7
  50              	.LVL2:
  51 000e FFF7FEFF 		bl	__aeabi_fcmple
  52              	.LVL3:
  53 0012 40B1     		cbz	r0, .L6
  19:exercise15.c  ****         *x = *x / *y;
  54              		.loc 1 19 0
  55 0014 3046     		mov	r0, r6
  56 0016 3946     		mov	r1, r7
  57 0018 FFF7FEFF 		bl	__aeabi_fdiv
  58              	.LVL4:
  59 001c 2060     		str	r0, [r4]	@ float
  20:exercise15.c  ****         *y = 1;
  60              		.loc 1 20 0
  61 001e 4FF07E53 		mov	r3, #1065353216
  62 0022 2B60     		str	r3, [r5]	@ float
  63 0024 F8BD     		pop	{r3, r4, r5, r6, r7, pc}
  64              	.LVL5:
  65              	.L6:
  21:exercise15.c  ****     }
  22:exercise15.c  ****     else
  23:exercise15.c  ****     {
  24:exercise15.c  ****         *y = *y / *x;
  66              		.loc 1 24 0
  67 0026 3846     		mov	r0, r7
  68 0028 3146     		mov	r1, r6
  69 002a FFF7FEFF 		bl	__aeabi_fdiv
  70              	.LVL6:
  71 002e 2860     		str	r0, [r5]	@ float
  25:exercise15.c  ****         *x = 1;
  72              		.loc 1 25 0
  73 0030 4FF07E53 		mov	r3, #1065353216
  74 0034 2360     		str	r3, [r4]	@ float
  75 0036 F8BD     		pop	{r3, r4, r5, r6, r7, pc}
  76              		.cfi_endproc
  77              	.LFE63:
  78              		.size	compscale, .-compscale
  79              		.global	__aeabi_f2d
  80              		.section	.text.exercise15,"ax",%progbits
  81              		.align	2
  82              		.global	exercise15
  83              		.thumb
  84              		.thumb_func
  85              		.type	exercise15, %function
  86              	exercise15:
  87              	.LFB64:
  26:exercise15.c  ****     }
  27:exercise15.c  **** }
ARM GAS  C:\Users\vedranb\AppData\Local\Temp\ccMqoqua.s 			page 3


  28:exercise15.c  **** 
  29:exercise15.c  **** void exercise15(void)
  30:exercise15.c  **** {
  88              		.loc 1 30 0
  89              		.cfi_startproc
  90              		@ args = 0, pretend = 0, frame = 8
  91              		@ frame_needed = 0, uses_anonymous_args = 0
  92 0000 00B5     		push	{lr}
  93              		.cfi_def_cfa_offset 4
  94              		.cfi_offset 14, -4
  95 0002 83B0     		sub	sp, sp, #12
  96              		.cfi_def_cfa_offset 16
  31:exercise15.c  ****      //Exercise 15
  32:exercise15.c  ****     printf("\n\nExercise 15. \n\n");
  97              		.loc 1 32 0
  98 0004 1448     		ldr	r0, .L10
  99 0006 FFF7FEFF 		bl	puts
 100              	.LVL7:
  33:exercise15.c  **** 
  34:exercise15.c  ****     float a,b;
  35:exercise15.c  **** 
  36:exercise15.c  ****     printf("\nPlease enter number 1:\n");
 101              		.loc 1 36 0
 102 000a 1448     		ldr	r0, .L10+4
 103 000c FFF7FEFF 		bl	puts
 104              	.LVL8:
  37:exercise15.c  ****     a = readFloat();
 105              		.loc 1 37 0
 106 0010 FFF7FEFF 		bl	readFloat
 107              	.LVL9:
 108 0014 0190     		str	r0, [sp, #4]	@ float
  38:exercise15.c  ****     printf("\nPlease enter number 2:\n");
 109              		.loc 1 38 0
 110 0016 1248     		ldr	r0, .L10+8
 111 0018 FFF7FEFF 		bl	puts
 112              	.LVL10:
  39:exercise15.c  ****     b = readFloat();
 113              		.loc 1 39 0
 114 001c FFF7FEFF 		bl	readFloat
 115              	.LVL11:
 116 0020 0090     		str	r0, [sp]	@ float
  40:exercise15.c  **** 
  41:exercise15.c  ****     compscale(&a, &b);
 117              		.loc 1 41 0
 118 0022 01A8     		add	r0, sp, #4
 119 0024 6946     		mov	r1, sp
 120 0026 FFF7FEFF 		bl	compscale
 121              	.LVL12:
  42:exercise15.c  **** 
  43:exercise15.c  ****     printf("Scaled value 1: %.2f\n", a);
 122              		.loc 1 43 0
 123 002a 0198     		ldr	r0, [sp, #4]	@ float
 124 002c FFF7FEFF 		bl	__aeabi_f2d
 125              	.LVL13:
 126 0030 0246     		mov	r2, r0
 127 0032 0B46     		mov	r3, r1
 128 0034 0B48     		ldr	r0, .L10+12
ARM GAS  C:\Users\vedranb\AppData\Local\Temp\ccMqoqua.s 			page 4


 129 0036 FFF7FEFF 		bl	printf
 130              	.LVL14:
  44:exercise15.c  ****     printf("Scaled value 2: %.2f\n", b);
 131              		.loc 1 44 0
 132 003a 0098     		ldr	r0, [sp]	@ float
 133 003c FFF7FEFF 		bl	__aeabi_f2d
 134              	.LVL15:
 135 0040 0246     		mov	r2, r0
 136 0042 0B46     		mov	r3, r1
 137 0044 0848     		ldr	r0, .L10+16
 138 0046 FFF7FEFF 		bl	printf
 139              	.LVL16:
  45:exercise15.c  **** 
  46:exercise15.c  **** 
  47:exercise15.c  ****     printf("\nEnd of Exercise 15. \n\n");
 140              		.loc 1 47 0
 141 004a 0848     		ldr	r0, .L10+20
 142 004c FFF7FEFF 		bl	puts
 143              	.LVL17:
  48:exercise15.c  ****     return;
  49:exercise15.c  **** }
 144              		.loc 1 49 0
 145 0050 03B0     		add	sp, sp, #12
 146              		.cfi_def_cfa_offset 4
 147              		@ sp needed
 148 0052 5DF804FB 		ldr	pc, [sp], #4
 149              	.L11:
 150 0056 00BF     		.align	2
 151              	.L10:
 152 0058 00000000 		.word	.LC0
 153 005c 14000000 		.word	.LC1
 154 0060 2C000000 		.word	.LC2
 155 0064 44000000 		.word	.LC3
 156 0068 5C000000 		.word	.LC4
 157 006c 74000000 		.word	.LC5
 158              		.cfi_endproc
 159              	.LFE64:
 160              		.size	exercise15, .-exercise15
 161              		.section	.rodata.str1.4,"aMS",%progbits,1
 162              		.align	2
 163              	.LC0:
 164 0000 0A0A4578 		.ascii	"\012\012Exercise 15. \012\000"
 164      65726369 
 164      73652031 
 164      352E200A 
 164      00
 165 0011 000000   		.space	3
 166              	.LC1:
 167 0014 0A506C65 		.ascii	"\012Please enter number 1:\000"
 167      61736520 
 167      656E7465 
 167      72206E75 
 167      6D626572 
 168              	.LC2:
 169 002c 0A506C65 		.ascii	"\012Please enter number 2:\000"
 169      61736520 
 169      656E7465 
ARM GAS  C:\Users\vedranb\AppData\Local\Temp\ccMqoqua.s 			page 5


 169      72206E75 
 169      6D626572 
 170              	.LC3:
 171 0044 5363616C 		.ascii	"Scaled value 1: %.2f\012\000"
 171      65642076 
 171      616C7565 
 171      20313A20 
 171      252E3266 
 172 005a 0000     		.space	2
 173              	.LC4:
 174 005c 5363616C 		.ascii	"Scaled value 2: %.2f\012\000"
 174      65642076 
 174      616C7565 
 174      20323A20 
 174      252E3266 
 175 0072 0000     		.space	2
 176              	.LC5:
 177 0074 0A456E64 		.ascii	"\012End of Exercise 15. \012\000"
 177      206F6620 
 177      45786572 
 177      63697365 
 177      2031352E 
 178 008b 00       		.text
 179              	.Letext0:
 180              		.file 2 "c:\\program files (x86)\\cypress\\psoc creator\\4.0\\psoc creator\\import\\gnu\\arm\\4.9.
 181              		.file 3 "c:\\program files (x86)\\cypress\\psoc creator\\4.0\\psoc creator\\import\\gnu\\arm\\4.9.
 182              		.file 4 "Generated_Source\\PSoC5/core_cm3.h"
 183              		.file 5 "<built-in>"
 184              		.file 6 "common_functions.h"
 185              		.file 7 "c:\\program files (x86)\\cypress\\psoc creator\\4.0\\psoc creator\\import\\gnu\\arm\\4.9.