ARM GAS  C:\Users\vedranb\AppData\Local\Temp\ccduHxqr.s 			page 1


   1              		.syntax unified
   2              		.cpu cortex-m3
   3              		.fpu softvfp
   4              		.eabi_attribute 20, 1
   5              		.eabi_attribute 21, 1
   6              		.eabi_attribute 23, 3
   7              		.eabi_attribute 24, 1
   8              		.eabi_attribute 25, 1
   9              		.eabi_attribute 26, 1
  10              		.eabi_attribute 30, 1
  11              		.eabi_attribute 34, 1
  12              		.eabi_attribute 18, 4
  13              		.thumb
  14              		.file	"exercise19.c"
  15              		.text
  16              	.Ltext0:
  17              		.cfi_sections	.debug_frame
  18              		.section	.text.ask,"ax",%progbits
  19              		.align	2
  20              		.global	ask
  21              		.thumb
  22              		.thumb_func
  23              		.type	ask, %function
  24              	ask:
  25              	.LFB63:
  26              		.file 1 "exercise19.c"
   1:exercise19.c  **** /* ========================================
   2:exercise19.c  ****  *
   3:exercise19.c  ****  * Copyright YOUR COMPANY, THE YEAR
   4:exercise19.c  ****  * All Rights Reserved
   5:exercise19.c  ****  * UNPUBLISHED, LICENSED SOFTWARE.
   6:exercise19.c  ****  *
   7:exercise19.c  ****  * CONFIDENTIAL AND PROPRIETARY INFORMATION
   8:exercise19.c  ****  * WHICH IS THE PROPERTY OF your company.
   9:exercise19.c  ****  *
  10:exercise19.c  ****  * ========================================
  11:exercise19.c  **** */
  12:exercise19.c  **** #include "project.h"
  13:exercise19.c  **** #include <stdio.h>
  14:exercise19.c  **** 
  15:exercise19.c  **** 
  16:exercise19.c  **** 
  17:exercise19.c  **** void ask(char question[], char *answer, int limit){
  27              		.loc 1 17 0
  28              		.cfi_startproc
  29              		@ args = 0, pretend = 0, frame = 0
  30              		@ frame_needed = 0, uses_anonymous_args = 0
  31              	.LVL0:
  32 0000 38B5     		push	{r3, r4, r5, lr}
  33              		.cfi_def_cfa_offset 16
  34              		.cfi_offset 3, -16
  35              		.cfi_offset 4, -12
  36              		.cfi_offset 5, -8
  37              		.cfi_offset 14, -4
  38 0002 0C46     		mov	r4, r1
  39 0004 1546     		mov	r5, r2
  18:exercise19.c  **** 
ARM GAS  C:\Users\vedranb\AppData\Local\Temp\ccduHxqr.s 			page 2


  19:exercise19.c  ****     printf("%s\n", question);
  40              		.loc 1 19 0
  41 0006 FFF7FEFF 		bl	puts
  42              	.LVL1:
  20:exercise19.c  **** 
  21:exercise19.c  ****     fgets(answer, limit, stdin);
  43              		.loc 1 21 0
  44 000a 084B     		ldr	r3, .L4
  45 000c 1B68     		ldr	r3, [r3]
  46 000e 2046     		mov	r0, r4
  47 0010 2946     		mov	r1, r5
  48 0012 5A68     		ldr	r2, [r3, #4]
  49 0014 FFF7FEFF 		bl	fgets
  50              	.LVL2:
  22:exercise19.c  ****     if(answer[strlen(answer) - 1] == '\n') { answer[strlen(answer) - 1] = '\0'; }
  51              		.loc 1 22 0
  52 0018 2046     		mov	r0, r4
  53 001a FFF7FEFF 		bl	strlen
  54              	.LVL3:
  55 001e 0138     		subs	r0, r0, #1
  56 0020 235C     		ldrb	r3, [r4, r0]	@ zero_extendqisi2
  57 0022 0A2B     		cmp	r3, #10
  58 0024 01D1     		bne	.L1
  59              		.loc 1 22 0 is_stmt 0 discriminator 1
  60 0026 0023     		movs	r3, #0
  61 0028 2354     		strb	r3, [r4, r0]
  62              	.L1:
  63 002a 38BD     		pop	{r3, r4, r5, pc}
  64              	.LVL4:
  65              	.L5:
  66              		.align	2
  67              	.L4:
  68 002c 00000000 		.word	_impure_ptr
  69              		.cfi_endproc
  70              	.LFE63:
  71              		.size	ask, .-ask
  72              		.section	.text.exercise19,"ax",%progbits
  73              		.align	2
  74              		.global	exercise19
  75              		.thumb
  76              		.thumb_func
  77              		.type	exercise19, %function
  78              	exercise19:
  79              	.LFB64:
  23:exercise19.c  **** 
  24:exercise19.c  **** 
  25:exercise19.c  ****     return;
  26:exercise19.c  **** }
  27:exercise19.c  **** 
  28:exercise19.c  **** void exercise19(void)
  29:exercise19.c  **** {
  80              		.loc 1 29 0 is_stmt 1
  81              		.cfi_startproc
  82              		@ args = 0, pretend = 0, frame = 384
  83              		@ frame_needed = 0, uses_anonymous_args = 0
  84 0000 10B5     		push	{r4, lr}
  85              		.cfi_def_cfa_offset 8
ARM GAS  C:\Users\vedranb\AppData\Local\Temp\ccduHxqr.s 			page 3


  86              		.cfi_offset 4, -8
  87              		.cfi_offset 14, -4
  88 0002 E0B0     		sub	sp, sp, #384
  89              		.cfi_def_cfa_offset 392
  30:exercise19.c  ****     printf("\n\nExercise 19. \n\n");
  90              		.loc 1 30 0
  91 0004 3848     		ldr	r0, .L20
  92 0006 FFF7FEFF 		bl	puts
  93              	.LVL5:
  31:exercise19.c  **** 
  32:exercise19.c  ****     char fullname[50]="";
  94              		.loc 1 32 0
  95 000a 0024     		movs	r4, #0
  96 000c 5394     		str	r4, [sp, #332]
  97 000e 5494     		str	r4, [sp, #336]
  98 0010 5594     		str	r4, [sp, #340]
  99 0012 5694     		str	r4, [sp, #344]
 100 0014 5794     		str	r4, [sp, #348]
 101 0016 5894     		str	r4, [sp, #352]
 102 0018 5994     		str	r4, [sp, #356]
 103 001a 5A94     		str	r4, [sp, #360]
 104 001c 5B94     		str	r4, [sp, #364]
 105 001e 5C94     		str	r4, [sp, #368]
 106 0020 5D94     		str	r4, [sp, #372]
 107 0022 5E94     		str	r4, [sp, #376]
 108 0024 ADF87C41 		strh	r4, [sp, #380]	@ movhi
  33:exercise19.c  ****     char address[250]="";
 109              		.loc 1 33 0
 110 0028 1494     		str	r4, [sp, #80]
 111 002a 15A8     		add	r0, sp, #84
 112 002c 2146     		mov	r1, r4
 113 002e F622     		movs	r2, #246
 114 0030 FFF7FEFF 		bl	memset
 115              	.LVL6:
  34:exercise19.c  ****     char postoffice[80]="";
 116              		.loc 1 34 0
 117 0034 0094     		str	r4, [sp]
 118 0036 01A8     		add	r0, sp, #4
 119 0038 2146     		mov	r1, r4
 120 003a 4C22     		movs	r2, #76
 121 003c FFF7FEFF 		bl	memset
 122              	.LVL7:
 123              	.L10:
  35:exercise19.c  **** 
  36:exercise19.c  ****     //cleanup newline
  37:exercise19.c  ****     int c;
  38:exercise19.c  ****     while ( (c = getchar()) != EOF && c != '\n') { }
 124              		.loc 1 38 0 discriminator 6
 125 0040 2A4B     		ldr	r3, .L20+4
 126 0042 1968     		ldr	r1, [r3]
 127 0044 4A68     		ldr	r2, [r1, #4]
 128 0046 5368     		ldr	r3, [r2, #4]
 129 0048 013B     		subs	r3, r3, #1
 130 004a 5360     		str	r3, [r2, #4]
 131 004c 002B     		cmp	r3, #0
 132 004e 04DA     		bge	.L7
 133              		.loc 1 38 0 is_stmt 0 discriminator 1
ARM GAS  C:\Users\vedranb\AppData\Local\Temp\ccduHxqr.s 			page 4


 134 0050 0846     		mov	r0, r1
 135 0052 4968     		ldr	r1, [r1, #4]
 136 0054 FFF7FEFF 		bl	__srget_r
 137              	.LVL8:
 138 0058 06E0     		b	.L8
 139              	.L7:
 140              		.loc 1 38 0 discriminator 2
 141 005a 244B     		ldr	r3, .L20+4
 142 005c 1B68     		ldr	r3, [r3]
 143 005e 5A68     		ldr	r2, [r3, #4]
 144 0060 1368     		ldr	r3, [r2]
 145 0062 591C     		adds	r1, r3, #1
 146 0064 1160     		str	r1, [r2]
 147 0066 1878     		ldrb	r0, [r3]	@ zero_extendqisi2
 148              	.L8:
 149              	.LVL9:
 150              		.loc 1 38 0 discriminator 4
 151 0068 B0F1FF3F 		cmp	r0, #-1
 152 006c 0DD0     		beq	.L11
 153              		.loc 1 38 0 discriminator 5
 154 006e 0A28     		cmp	r0, #10
 155 0070 E6D1     		bne	.L10
 156 0072 0AE0     		b	.L11
 157              	.LVL10:
 158              	.L12:
  39:exercise19.c  **** 
  40:exercise19.c  ****     while(strlen(fullname) == 0){
  41:exercise19.c  ****         ask("Please enter your full name:", fullname, 50);
 159              		.loc 1 41 0 is_stmt 1
 160 0074 1E48     		ldr	r0, .L20+8
 161 0076 53A9     		add	r1, sp, #332
 162 0078 3222     		movs	r2, #50
 163 007a FFF7FEFF 		bl	ask
 164              	.LVL11:
  42:exercise19.c  ****         if(strlen(fullname) == 0){
 165              		.loc 1 42 0
 166 007e 9DF84C31 		ldrb	r3, [sp, #332]	@ zero_extendqisi2
 167 0082 13B9     		cbnz	r3, .L11
  43:exercise19.c  ****             printf("You didn't enter your name, please try again.\n");
 168              		.loc 1 43 0
 169 0084 1B48     		ldr	r0, .L20+12
 170 0086 FFF7FEFF 		bl	puts
 171              	.LVL12:
 172              	.L11:
  40:exercise19.c  ****         ask("Please enter your full name:", fullname, 50);
 173              		.loc 1 40 0
 174 008a 9DF84C31 		ldrb	r3, [sp, #332]	@ zero_extendqisi2
 175 008e 002B     		cmp	r3, #0
 176 0090 F0D0     		beq	.L12
 177 0092 0AE0     		b	.L14
 178              	.L15:
  44:exercise19.c  ****         }
  45:exercise19.c  **** 
  46:exercise19.c  ****     }
  47:exercise19.c  **** 
  48:exercise19.c  ****     while(strlen(address) == 0){
  49:exercise19.c  ****         ask("Please enter your address:", address, 250);
ARM GAS  C:\Users\vedranb\AppData\Local\Temp\ccduHxqr.s 			page 5


 179              		.loc 1 49 0
 180 0094 1848     		ldr	r0, .L20+16
 181 0096 14A9     		add	r1, sp, #80
 182 0098 FA22     		movs	r2, #250
 183 009a FFF7FEFF 		bl	ask
 184              	.LVL13:
  50:exercise19.c  ****         if(strlen(address) == 0){
 185              		.loc 1 50 0
 186 009e 9DF85030 		ldrb	r3, [sp, #80]	@ zero_extendqisi2
 187 00a2 13B9     		cbnz	r3, .L14
  51:exercise19.c  ****             printf("You didn't enter your address, please try again.\n");
 188              		.loc 1 51 0
 189 00a4 1548     		ldr	r0, .L20+20
 190 00a6 FFF7FEFF 		bl	puts
 191              	.LVL14:
 192              	.L14:
  48:exercise19.c  ****         ask("Please enter your address:", address, 250);
 193              		.loc 1 48 0
 194 00aa 9DF85030 		ldrb	r3, [sp, #80]	@ zero_extendqisi2
 195 00ae 002B     		cmp	r3, #0
 196 00b0 F0D0     		beq	.L15
 197 00b2 0AE0     		b	.L17
 198              	.L18:
  52:exercise19.c  ****         }
  53:exercise19.c  ****     }
  54:exercise19.c  **** 
  55:exercise19.c  ****     while(strlen(postoffice) == 0){
  56:exercise19.c  ****         ask("Please enter your postoffice code and locality:\n", postoffice, 80);
 199              		.loc 1 56 0
 200 00b4 1248     		ldr	r0, .L20+24
 201 00b6 6946     		mov	r1, sp
 202 00b8 5022     		movs	r2, #80
 203 00ba FFF7FEFF 		bl	ask
 204              	.LVL15:
  57:exercise19.c  ****         if(strlen(postoffice) == 0){
 205              		.loc 1 57 0
 206 00be 9DF80030 		ldrb	r3, [sp]	@ zero_extendqisi2
 207 00c2 13B9     		cbnz	r3, .L17
  58:exercise19.c  ****             printf("You didn't enter your postcode, please try again.\n");
 208              		.loc 1 58 0
 209 00c4 0F48     		ldr	r0, .L20+28
 210 00c6 FFF7FEFF 		bl	puts
 211              	.LVL16:
 212              	.L17:
  55:exercise19.c  ****         ask("Please enter your postoffice code and locality:\n", postoffice, 80);
 213              		.loc 1 55 0
 214 00ca 9DF80030 		ldrb	r3, [sp]	@ zero_extendqisi2
 215 00ce 002B     		cmp	r3, #0
 216 00d0 F0D0     		beq	.L18
  59:exercise19.c  ****         }
  60:exercise19.c  ****     }
  61:exercise19.c  **** 
  62:exercise19.c  ****     printf("\nYour address is:\n%s\n%s\n%s\n\n", fullname, address, postoffice);
 217              		.loc 1 62 0
 218 00d2 0D48     		ldr	r0, .L20+32
 219 00d4 53A9     		add	r1, sp, #332
 220 00d6 14AA     		add	r2, sp, #80
ARM GAS  C:\Users\vedranb\AppData\Local\Temp\ccduHxqr.s 			page 6


 221 00d8 6B46     		mov	r3, sp
 222 00da FFF7FEFF 		bl	printf
 223              	.LVL17:
  63:exercise19.c  ****     printf("End of Exercise 19 \n\n");
 224              		.loc 1 63 0
 225 00de 0B48     		ldr	r0, .L20+36
 226 00e0 FFF7FEFF 		bl	puts
 227              	.LVL18:
  64:exercise19.c  ****     return;
  65:exercise19.c  **** }
 228              		.loc 1 65 0
 229 00e4 60B0     		add	sp, sp, #384
 230              		.cfi_def_cfa_offset 8
 231              		@ sp needed
 232 00e6 10BD     		pop	{r4, pc}
 233              	.L21:
 234              		.align	2
 235              	.L20:
 236 00e8 00000000 		.word	.LC0
 237 00ec 00000000 		.word	_impure_ptr
 238 00f0 14000000 		.word	.LC1
 239 00f4 34000000 		.word	.LC2
 240 00f8 64000000 		.word	.LC3
 241 00fc 80000000 		.word	.LC4
 242 0100 B4000000 		.word	.LC5
 243 0104 E8000000 		.word	.LC6
 244 0108 1C010000 		.word	.LC7
 245 010c 3C010000 		.word	.LC8
 246              		.cfi_endproc
 247              	.LFE64:
 248              		.size	exercise19, .-exercise19
 249              		.section	.rodata.str1.4,"aMS",%progbits,1
 250              		.align	2
 251              	.LC0:
 252 0000 0A0A4578 		.ascii	"\012\012Exercise 19. \012\000"
 252      65726369 
 252      73652031 
 252      392E200A 
 252      00
 253 0011 000000   		.space	3
 254              	.LC1:
 255 0014 506C6561 		.ascii	"Please enter your full name:\000"
 255      73652065 
 255      6E746572 
 255      20796F75 
 255      72206675 
 256 0031 000000   		.space	3
 257              	.LC2:
 258 0034 596F7520 		.ascii	"You didn't enter your name, please try again.\000"
 258      6469646E 
 258      27742065 
 258      6E746572 
 258      20796F75 
 259 0062 0000     		.space	2
 260              	.LC3:
 261 0064 506C6561 		.ascii	"Please enter your address:\000"
 261      73652065 
ARM GAS  C:\Users\vedranb\AppData\Local\Temp\ccduHxqr.s 			page 7


 261      6E746572 
 261      20796F75 
 261      72206164 
 262 007f 00       		.space	1
 263              	.LC4:
 264 0080 596F7520 		.ascii	"You didn't enter your address, please try again.\000"
 264      6469646E 
 264      27742065 
 264      6E746572 
 264      20796F75 
 265 00b1 000000   		.space	3
 266              	.LC5:
 267 00b4 506C6561 		.ascii	"Please enter your postoffice code and locality:\012"
 267      73652065 
 267      6E746572 
 267      20796F75 
 267      7220706F 
 268 00e4 00       		.ascii	"\000"
 269 00e5 000000   		.space	3
 270              	.LC6:
 271 00e8 596F7520 		.ascii	"You didn't enter your postcode, please try again.\000"
 271      6469646E 
 271      27742065 
 271      6E746572 
 271      20796F75 
 272 011a 0000     		.space	2
 273              	.LC7:
 274 011c 0A596F75 		.ascii	"\012Your address is:\012%s\012%s\012%s\012\012\000"
 274      72206164 
 274      64726573 
 274      73206973 
 274      3A0A2573 
 275 0139 000000   		.space	3
 276              	.LC8:
 277 013c 456E6420 		.ascii	"End of Exercise 19 \012\000"
 277      6F662045 
 277      78657263 
 277      69736520 
 277      3139200A 
 278 0151 000000   		.text
 279              	.Letext0:
 280              		.file 2 "c:\\program files (x86)\\cypress\\psoc creator\\4.0\\psoc creator\\import\\gnu\\arm\\4.9.
 281              		.file 3 "c:\\program files (x86)\\cypress\\psoc creator\\4.0\\psoc creator\\import\\gnu\\arm\\4.9.
 282              		.file 4 "c:\\program files (x86)\\cypress\\psoc creator\\4.0\\psoc creator\\import\\gnu\\arm\\4.9.
 283              		.file 5 "c:\\program files (x86)\\cypress\\psoc creator\\4.0\\psoc creator\\import\\gnu\\arm\\4.9.
 284              		.file 6 "c:\\program files (x86)\\cypress\\psoc creator\\4.0\\psoc creator\\import\\gnu\\arm\\4.9.
 285              		.file 7 "c:\\program files (x86)\\cypress\\psoc creator\\4.0\\psoc creator\\import\\gnu\\arm\\4.9.
 286              		.file 8 "c:\\program files (x86)\\cypress\\psoc creator\\4.0\\psoc creator\\import\\gnu\\arm\\4.9.
 287              		.file 9 "Generated_Source\\PSoC5/core_cm3.h"
 288              		.file 10 "c:\\program files (x86)\\cypress\\psoc creator\\4.0\\psoc creator\\import\\gnu\\arm\\4.9
 289              		.file 11 "<built-in>"