ARM GAS  C:\Users\vedranb\AppData\Local\Temp\ccE8Mrei.s 			page 1


   1              		.syntax unified
   2              		.cpu cortex-m3
   3              		.fpu softvfp
   4              		.eabi_attribute 20, 1
   5              		.eabi_attribute 21, 1
   6              		.eabi_attribute 23, 3
   7              		.eabi_attribute 24, 1
   8              		.eabi_attribute 25, 1
   9              		.eabi_attribute 26, 1
  10              		.eabi_attribute 30, 1
  11              		.eabi_attribute 34, 1
  12              		.eabi_attribute 18, 4
  13              		.thumb
  14              		.file	"exercise18.c"
  15              		.text
  16              	.Ltext0:
  17              		.cfi_sections	.debug_frame
  18              		.section	.text.readName,"ax",%progbits
  19              		.align	2
  20              		.global	readName
  21              		.thumb
  22              		.thumb_func
  23              		.type	readName, %function
  24              	readName:
  25              	.LFB63:
  26              		.file 1 "exercise18.c"
   1:exercise18.c  **** /* ========================================
   2:exercise18.c  ****  *
   3:exercise18.c  ****  * Copyright YOUR COMPANY, THE YEAR
   4:exercise18.c  ****  * All Rights Reserved
   5:exercise18.c  ****  * UNPUBLISHED, LICENSED SOFTWARE.
   6:exercise18.c  ****  *
   7:exercise18.c  ****  * CONFIDENTIAL AND PROPRIETARY INFORMATION
   8:exercise18.c  ****  * WHICH IS THE PROPERTY OF your company.
   9:exercise18.c  ****  *
  10:exercise18.c  ****  * ========================================
  11:exercise18.c  **** */
  12:exercise18.c  **** #include "project.h"
  13:exercise18.c  **** #include <stdio.h>
  14:exercise18.c  **** 
  15:exercise18.c  **** #define MAX_NAME_LENGTH 30
  16:exercise18.c  **** 
  17:exercise18.c  **** void readName(char *name){
  27              		.loc 1 17 0
  28              		.cfi_startproc
  29              		@ args = 0, pretend = 0, frame = 0
  30              		@ frame_needed = 0, uses_anonymous_args = 0
  31              	.LVL0:
  32 0000 10B5     		push	{r4, lr}
  33              		.cfi_def_cfa_offset 8
  34              		.cfi_offset 4, -8
  35              		.cfi_offset 14, -4
  36 0002 0446     		mov	r4, r0
  18:exercise18.c  ****     fgets(name, MAX_NAME_LENGTH, stdin);
  37              		.loc 1 18 0
  38 0004 074B     		ldr	r3, .L4
  39 0006 1B68     		ldr	r3, [r3]
ARM GAS  C:\Users\vedranb\AppData\Local\Temp\ccE8Mrei.s 			page 2


  40 0008 1E21     		movs	r1, #30
  41 000a 5A68     		ldr	r2, [r3, #4]
  42 000c FFF7FEFF 		bl	fgets
  43              	.LVL1:
  19:exercise18.c  ****     if(name[strlen(name) - 1] == '\n') { name[strlen(name) - 1] = '\0'; }
  44              		.loc 1 19 0
  45 0010 2046     		mov	r0, r4
  46 0012 FFF7FEFF 		bl	strlen
  47              	.LVL2:
  48 0016 0138     		subs	r0, r0, #1
  49 0018 235C     		ldrb	r3, [r4, r0]	@ zero_extendqisi2
  50 001a 0A2B     		cmp	r3, #10
  51 001c 01D1     		bne	.L1
  52              		.loc 1 19 0 is_stmt 0 discriminator 1
  53 001e 0023     		movs	r3, #0
  54 0020 2354     		strb	r3, [r4, r0]
  55              	.L1:
  56 0022 10BD     		pop	{r4, pc}
  57              	.LVL3:
  58              	.L5:
  59              		.align	2
  60              	.L4:
  61 0024 00000000 		.word	_impure_ptr
  62              		.cfi_endproc
  63              	.LFE63:
  64              		.size	readName, .-readName
  65              		.section	.text.exercise18,"ax",%progbits
  66              		.align	2
  67              		.global	exercise18
  68              		.thumb
  69              		.thumb_func
  70              		.type	exercise18, %function
  71              	exercise18:
  72              	.LFB64:
  20:exercise18.c  ****     return;
  21:exercise18.c  **** }
  22:exercise18.c  **** 
  23:exercise18.c  **** void exercise18(void)
  24:exercise18.c  **** {
  73              		.loc 1 24 0 is_stmt 1
  74              		.cfi_startproc
  75              		@ args = 0, pretend = 0, frame = 128
  76              		@ frame_needed = 0, uses_anonymous_args = 0
  77 0000 10B5     		push	{r4, lr}
  78              		.cfi_def_cfa_offset 8
  79              		.cfi_offset 4, -8
  80              		.cfi_offset 14, -4
  81 0002 A0B0     		sub	sp, sp, #128
  82              		.cfi_def_cfa_offset 136
  25:exercise18.c  ****      //Exercise 18
  26:exercise18.c  ****     printf("\n\nExercise 18. \n\n");
  83              		.loc 1 26 0
  84 0004 2B48     		ldr	r0, .L14
  85 0006 FFF7FEFF 		bl	puts
  86              	.LVL4:
  87              	.L10:
  27:exercise18.c  **** 
ARM GAS  C:\Users\vedranb\AppData\Local\Temp\ccE8Mrei.s 			page 3


  28:exercise18.c  ****     char firstName[MAX_NAME_LENGTH];
  29:exercise18.c  ****     char lastName[MAX_NAME_LENGTH];
  30:exercise18.c  **** 
  31:exercise18.c  ****     int c;
  32:exercise18.c  ****     while ( (c = getchar()) != EOF && c != '\n') { }
  88              		.loc 1 32 0 discriminator 6
  89 000a 2B4B     		ldr	r3, .L14+4
  90 000c 1A68     		ldr	r2, [r3]
  91 000e 5168     		ldr	r1, [r2, #4]
  92 0010 4B68     		ldr	r3, [r1, #4]
  93 0012 013B     		subs	r3, r3, #1
  94 0014 4B60     		str	r3, [r1, #4]
  95 0016 002B     		cmp	r3, #0
  96 0018 04DA     		bge	.L7
  97              		.loc 1 32 0 is_stmt 0 discriminator 1
  98 001a 1046     		mov	r0, r2
  99 001c 5168     		ldr	r1, [r2, #4]
 100 001e FFF7FEFF 		bl	__srget_r
 101              	.LVL5:
 102 0022 04E0     		b	.L8
 103              	.L7:
 104              		.loc 1 32 0 discriminator 2
 105 0024 5268     		ldr	r2, [r2, #4]
 106 0026 1368     		ldr	r3, [r2]
 107 0028 591C     		adds	r1, r3, #1
 108 002a 1160     		str	r1, [r2]
 109 002c 1878     		ldrb	r0, [r3]	@ zero_extendqisi2
 110              	.L8:
 111              	.LVL6:
 112              		.loc 1 32 0 discriminator 4
 113 002e B0F1FF3F 		cmp	r0, #-1
 114 0032 01D0     		beq	.L9
 115              		.loc 1 32 0 discriminator 5
 116 0034 0A28     		cmp	r0, #10
 117 0036 E8D1     		bne	.L10
 118              	.L9:
  33:exercise18.c  **** 
  34:exercise18.c  ****     printf("Please enter your name:");
 119              		.loc 1 34 0 is_stmt 1
 120 0038 2048     		ldr	r0, .L14+8
 121              	.LVL7:
 122 003a FFF7FEFF 		bl	printf
 123              	.LVL8:
  35:exercise18.c  ****     readName(firstName);
 124              		.loc 1 35 0
 125 003e 18A8     		add	r0, sp, #96
 126 0040 FFF7FEFF 		bl	readName
 127              	.LVL9:
  36:exercise18.c  **** 
  37:exercise18.c  ****     printf("Please enter your last name:");
 128              		.loc 1 37 0
 129 0044 1E48     		ldr	r0, .L14+12
 130 0046 FFF7FEFF 		bl	printf
 131              	.LVL10:
  38:exercise18.c  ****     readName(lastName);
 132              		.loc 1 38 0
 133 004a 10A8     		add	r0, sp, #64
ARM GAS  C:\Users\vedranb\AppData\Local\Temp\ccE8Mrei.s 			page 4


 134 004c FFF7FEFF 		bl	readName
 135              	.LVL11:
  39:exercise18.c  **** 
  40:exercise18.c  ****     char fullName[(2 * MAX_NAME_LENGTH) + 1]="";
 136              		.loc 1 40 0
 137 0050 0021     		movs	r1, #0
 138 0052 0091     		str	r1, [sp]
 139 0054 01A8     		add	r0, sp, #4
 140 0056 3922     		movs	r2, #57
 141 0058 FFF7FEFF 		bl	memset
 142              	.LVL12:
  41:exercise18.c  **** 
  42:exercise18.c  ****     if(strlen(firstName) + strlen(lastName) + 1 > 61){
 143              		.loc 1 42 0
 144 005c 18A8     		add	r0, sp, #96
 145 005e FFF7FEFF 		bl	strlen
 146              	.LVL13:
 147 0062 0446     		mov	r4, r0
 148 0064 10A8     		add	r0, sp, #64
 149 0066 FFF7FEFF 		bl	strlen
 150              	.LVL14:
 151 006a 2044     		add	r0, r0, r4
 152 006c 0130     		adds	r0, r0, #1
 153 006e 3D28     		cmp	r0, #61
 154 0070 03D9     		bls	.L11
  43:exercise18.c  ****         printf("Error, the names don't fit the third string\n");
 155              		.loc 1 43 0
 156 0072 1448     		ldr	r0, .L14+16
 157 0074 FFF7FEFF 		bl	puts
 158              	.LVL15:
  44:exercise18.c  ****         return;
 159              		.loc 1 44 0
 160 0078 19E0     		b	.L6
 161              	.L11:
  45:exercise18.c  ****     }
  46:exercise18.c  **** 
  47:exercise18.c  ****     strcat(fullName, lastName);
 162              		.loc 1 47 0
 163 007a 6846     		mov	r0, sp
 164 007c 10A9     		add	r1, sp, #64
 165 007e FFF7FEFF 		bl	strcat
 166              	.LVL16:
  48:exercise18.c  ****     strcat(fullName, " ");
 167              		.loc 1 48 0
 168 0082 6846     		mov	r0, sp
 169 0084 FFF7FEFF 		bl	strlen
 170              	.LVL17:
 171 0088 0F4B     		ldr	r3, .L14+20
 172 008a 1B88     		ldrh	r3, [r3]	@ unaligned
 173 008c 2DF80030 		strh	r3, [sp, r0]	@ unaligned
  49:exercise18.c  ****     strcat(fullName, firstName);
 174              		.loc 1 49 0
 175 0090 6846     		mov	r0, sp
 176 0092 18A9     		add	r1, sp, #96
 177 0094 FFF7FEFF 		bl	strcat
 178              	.LVL18:
  50:exercise18.c  **** 
ARM GAS  C:\Users\vedranb\AppData\Local\Temp\ccE8Mrei.s 			page 5


  51:exercise18.c  ****     printf("Hello, %s.\nString length: %d\n", fullName, strlen(fullName));
 179              		.loc 1 51 0
 180 0098 6846     		mov	r0, sp
 181 009a FFF7FEFF 		bl	strlen
 182              	.LVL19:
 183 009e 0246     		mov	r2, r0
 184 00a0 0A48     		ldr	r0, .L14+24
 185 00a2 6946     		mov	r1, sp
 186 00a4 FFF7FEFF 		bl	printf
 187              	.LVL20:
  52:exercise18.c  **** 
  53:exercise18.c  ****     printf("\nEnd of Exercise 18. \n\n");
 188              		.loc 1 53 0
 189 00a8 0948     		ldr	r0, .L14+28
 190 00aa FFF7FEFF 		bl	puts
 191              	.LVL21:
 192              	.L6:
  54:exercise18.c  ****     return;
  55:exercise18.c  **** }
 193              		.loc 1 55 0
 194 00ae 20B0     		add	sp, sp, #128
 195              		.cfi_def_cfa_offset 8
 196              		@ sp needed
 197 00b0 10BD     		pop	{r4, pc}
 198              	.L15:
 199 00b2 00BF     		.align	2
 200              	.L14:
 201 00b4 00000000 		.word	.LC0
 202 00b8 00000000 		.word	_impure_ptr
 203 00bc 14000000 		.word	.LC1
 204 00c0 2C000000 		.word	.LC2
 205 00c4 4C000000 		.word	.LC3
 206 00c8 78000000 		.word	.LC4
 207 00cc 7C000000 		.word	.LC5
 208 00d0 9C000000 		.word	.LC6
 209              		.cfi_endproc
 210              	.LFE64:
 211              		.size	exercise18, .-exercise18
 212              		.section	.rodata.str1.4,"aMS",%progbits,1
 213              		.align	2
 214              	.LC0:
 215 0000 0A0A4578 		.ascii	"\012\012Exercise 18. \012\000"
 215      65726369 
 215      73652031 
 215      382E200A 
 215      00
 216 0011 000000   		.space	3
 217              	.LC1:
 218 0014 506C6561 		.ascii	"Please enter your name:\000"
 218      73652065 
 218      6E746572 
 218      20796F75 
 218      72206E61 
 219              	.LC2:
 220 002c 506C6561 		.ascii	"Please enter your last name:\000"
 220      73652065 
 220      6E746572 
ARM GAS  C:\Users\vedranb\AppData\Local\Temp\ccE8Mrei.s 			page 6


 220      20796F75 
 220      72206C61 
 221 0049 000000   		.space	3
 222              	.LC3:
 223 004c 4572726F 		.ascii	"Error, the names don't fit the third string\000"
 223      722C2074 
 223      6865206E 
 223      616D6573 
 223      20646F6E 
 224              	.LC4:
 225 0078 2000     		.ascii	" \000"
 226 007a 0000     		.space	2
 227              	.LC5:
 228 007c 48656C6C 		.ascii	"Hello, %s.\012String length: %d\012\000"
 228      6F2C2025 
 228      732E0A53 
 228      7472696E 
 228      67206C65 
 229 009a 0000     		.space	2
 230              	.LC6:
 231 009c 0A456E64 		.ascii	"\012End of Exercise 18. \012\000"
 231      206F6620 
 231      45786572 
 231      63697365 
 231      2031382E 
 232 00b3 00       		.text
 233              	.Letext0:
 234              		.file 2 "c:\\program files (x86)\\cypress\\psoc creator\\4.0\\psoc creator\\import\\gnu\\arm\\4.9.
 235              		.file 3 "c:\\program files (x86)\\cypress\\psoc creator\\4.0\\psoc creator\\import\\gnu\\arm\\4.9.
 236              		.file 4 "c:\\program files (x86)\\cypress\\psoc creator\\4.0\\psoc creator\\import\\gnu\\arm\\4.9.
 237              		.file 5 "c:\\program files (x86)\\cypress\\psoc creator\\4.0\\psoc creator\\import\\gnu\\arm\\4.9.
 238              		.file 6 "c:\\program files (x86)\\cypress\\psoc creator\\4.0\\psoc creator\\import\\gnu\\arm\\4.9.
 239              		.file 7 "c:\\program files (x86)\\cypress\\psoc creator\\4.0\\psoc creator\\import\\gnu\\arm\\4.9.
 240              		.file 8 "c:\\program files (x86)\\cypress\\psoc creator\\4.0\\psoc creator\\import\\gnu\\arm\\4.9.
 241              		.file 9 "Generated_Source\\PSoC5/core_cm3.h"
 242              		.file 10 "c:\\program files (x86)\\cypress\\psoc creator\\4.0\\psoc creator\\import\\gnu\\arm\\4.9
 243              		.file 11 "<built-in>"