ARM GAS  C:\Users\vedranb\AppData\Local\Temp\ccP930Yj.s 			page 1


   1              		.syntax unified
   2              		.cpu cortex-m3
   3              		.fpu softvfp
   4              		.eabi_attribute 20, 1
   5              		.eabi_attribute 21, 1
   6              		.eabi_attribute 23, 3
   7              		.eabi_attribute 24, 1
   8              		.eabi_attribute 25, 1
   9              		.eabi_attribute 26, 1
  10              		.eabi_attribute 30, 1
  11              		.eabi_attribute 34, 1
  12              		.eabi_attribute 18, 4
  13              		.thumb
  14              		.file	"exercise6.c"
  15              		.text
  16              	.Ltext0:
  17              		.cfi_sections	.debug_frame
  18              		.section	.text.exercise6,"ax",%progbits
  19              		.align	2
  20              		.global	exercise6
  21              		.thumb
  22              		.thumb_func
  23              		.type	exercise6, %function
  24              	exercise6:
  25              	.LFB63:
  26              		.file 1 "exercise6.c"
   1:exercise6.c   **** /* ========================================
   2:exercise6.c   ****  *
   3:exercise6.c   ****  * Copyright YOUR COMPANY, THE YEAR
   4:exercise6.c   ****  * All Rights Reserved
   5:exercise6.c   ****  * UNPUBLISHED, LICENSED SOFTWARE.
   6:exercise6.c   ****  *
   7:exercise6.c   ****  * CONFIDENTIAL AND PROPRIETARY INFORMATION
   8:exercise6.c   ****  * WHICH IS THE PROPERTY OF your company.
   9:exercise6.c   ****  *
  10:exercise6.c   ****  * ========================================
  11:exercise6.c   **** */
  12:exercise6.c   **** #include "project.h"
  13:exercise6.c   **** #include <stdio.h>
  14:exercise6.c   **** #include "common_functions.h"
  15:exercise6.c   **** 
  16:exercise6.c   **** void exercise6(void)
  17:exercise6.c   **** {
  27              		.loc 1 17 0
  28              		.cfi_startproc
  29              		@ args = 0, pretend = 0, frame = 16
  30              		@ frame_needed = 0, uses_anonymous_args = 0
  31 0000 10B5     		push	{r4, lr}
  32              		.cfi_def_cfa_offset 8
  33              		.cfi_offset 4, -8
  34              		.cfi_offset 14, -4
  35 0002 84B0     		sub	sp, sp, #16
  36              		.cfi_def_cfa_offset 24
  18:exercise6.c   ****      //Exercise 6
  19:exercise6.c   ****     printf("\n\nExercise 6. \n\n");
  37              		.loc 1 19 0
  38 0004 3248     		ldr	r0, .L10
ARM GAS  C:\Users\vedranb\AppData\Local\Temp\ccP930Yj.s 			page 2


  39 0006 FFF7FEFF 		bl	puts
  40              	.LVL0:
  20:exercise6.c   **** 
  21:exercise6.c   ****     //declarations
  22:exercise6.c   ****     int currentHours = 0;
  41              		.loc 1 22 0
  42 000a 0023     		movs	r3, #0
  43 000c 0393     		str	r3, [sp, #12]
  23:exercise6.c   ****     int currentMinutes = 0;
  44              		.loc 1 23 0
  45 000e 0293     		str	r3, [sp, #8]
  24:exercise6.c   ****     int sleepHours = 0;
  46              		.loc 1 24 0
  47 0010 0193     		str	r3, [sp, #4]
  25:exercise6.c   ****     int sleepMinutes = 0;
  48              		.loc 1 25 0
  49 0012 0093     		str	r3, [sp]
  50              	.LVL1:
  26:exercise6.c   ****     int wakeUpHours = 0;
  27:exercise6.c   ****     int wakeUpMinutes = 0;
  28:exercise6.c   ****     int dayDiff = 0;
  29:exercise6.c   **** 
  30:exercise6.c   ****     //enter data
  31:exercise6.c   ****     printf("Enter the current time (hh:mm):");
  51              		.loc 1 31 0
  52 0014 2F48     		ldr	r0, .L10+4
  53 0016 FFF7FEFF 		bl	printf
  54              	.LVL2:
  32:exercise6.c   ****     scanf("%d:%d", &currentHours, &currentMinutes);
  55              		.loc 1 32 0
  56 001a 2F4C     		ldr	r4, .L10+8
  57 001c 2046     		mov	r0, r4
  58 001e 03A9     		add	r1, sp, #12
  59 0020 02AA     		add	r2, sp, #8
  60 0022 FFF7FEFF 		bl	scanf
  61              	.LVL3:
  33:exercise6.c   ****     printf("How much time do you wish to sleep? (hh:mm):");
  62              		.loc 1 33 0
  63 0026 2D48     		ldr	r0, .L10+12
  64 0028 FFF7FEFF 		bl	printf
  65              	.LVL4:
  34:exercise6.c   ****     scanf("%d:%d", &sleepHours, &sleepMinutes);
  66              		.loc 1 34 0
  67 002c 2046     		mov	r0, r4
  68 002e 01A9     		add	r1, sp, #4
  69 0030 6A46     		mov	r2, sp
  70 0032 FFF7FEFF 		bl	scanf
  71              	.LVL5:
  35:exercise6.c   **** 
  36:exercise6.c   ****     //check if the data is correctly formatted, if not, extrapolate and recalculate
  37:exercise6.c   ****     if(sleepMinutes >= 60){
  72              		.loc 1 37 0
  73 0036 009A     		ldr	r2, [sp]
  74 0038 3B2A     		cmp	r2, #59
  75 003a 0EDD     		ble	.L2
  38:exercise6.c   ****         //add extra ours from minute multiples of 60
  39:exercise6.c   ****         sleepHours += sleepMinutes / 60;
ARM GAS  C:\Users\vedranb\AppData\Local\Temp\ccP930Yj.s 			page 3


  76              		.loc 1 39 0
  77 003c 284B     		ldr	r3, .L10+16
  78 003e 83FB0213 		smull	r1, r3, r3, r2
  79 0042 9918     		adds	r1, r3, r2
  80 0044 D317     		asrs	r3, r2, #31
  81 0046 C3EB6113 		rsb	r3, r3, r1, asr #5
  82 004a 0199     		ldr	r1, [sp, #4]
  83 004c 1944     		add	r1, r1, r3
  84 004e 0191     		str	r1, [sp, #4]
  40:exercise6.c   ****         //keep the remainder minutes as minutes
  41:exercise6.c   ****         sleepMinutes = sleepMinutes % 60;
  85              		.loc 1 41 0
  86 0050 C3EB0313 		rsb	r3, r3, r3, lsl #4
  87 0054 9B00     		lsls	r3, r3, #2
  88 0056 D11A     		subs	r1, r2, r3
  89 0058 0091     		str	r1, [sp]
  90              	.L2:
  42:exercise6.c   ****     }
  43:exercise6.c   **** 
  44:exercise6.c   ****     //add up minutes with minutes, hours with hours
  45:exercise6.c   ****     wakeUpMinutes = currentMinutes + sleepMinutes;
  91              		.loc 1 45 0
  92 005a 009B     		ldr	r3, [sp]
  93 005c 029A     		ldr	r2, [sp, #8]
  94 005e 1A44     		add	r2, r2, r3
  95              	.LVL6:
  46:exercise6.c   ****     wakeUpHours = currentHours + sleepHours;
  96              		.loc 1 46 0
  97 0060 019B     		ldr	r3, [sp, #4]
  98 0062 0399     		ldr	r1, [sp, #12]
  99 0064 1944     		add	r1, r1, r3
 100              	.LVL7:
  47:exercise6.c   **** 
  48:exercise6.c   ****     //if minutes are 60 or more, add more hours to hours, reduce minutes to below 60
  49:exercise6.c   ****     if(wakeUpMinutes >= 60){
 101              		.loc 1 49 0
 102 0066 3B2A     		cmp	r2, #59
 103 0068 0BDD     		ble	.L3
  50:exercise6.c   ****         wakeUpHours += wakeUpMinutes / 60;
 104              		.loc 1 50 0
 105 006a 1D4B     		ldr	r3, .L10+16
 106 006c 83FB0203 		smull	r0, r3, r3, r2
 107 0070 1344     		add	r3, r3, r2
 108 0072 D017     		asrs	r0, r2, #31
 109 0074 C0EB6313 		rsb	r3, r0, r3, asr #5
 110 0078 1944     		add	r1, r1, r3
 111              	.LVL8:
  51:exercise6.c   ****         wakeUpMinutes = wakeUpMinutes % 60;
 112              		.loc 1 51 0
 113 007a C3EB0313 		rsb	r3, r3, r3, lsl #4
 114 007e 9B00     		lsls	r3, r3, #2
 115 0080 D21A     		subs	r2, r2, r3
 116              	.LVL9:
 117              	.L3:
  52:exercise6.c   ****     }
  53:exercise6.c   **** 
  54:exercise6.c   ****     //check if hours go into next day (or more days)
ARM GAS  C:\Users\vedranb\AppData\Local\Temp\ccP930Yj.s 			page 4


  55:exercise6.c   ****     if(wakeUpHours >= 24){
 118              		.loc 1 55 0
 119 0082 1729     		cmp	r1, #23
 120 0084 0ADD     		ble	.L8
  56:exercise6.c   ****         dayDiff = wakeUpHours / 24;
 121              		.loc 1 56 0
 122 0086 174C     		ldr	r4, .L10+20
 123 0088 84FB0134 		smull	r3, r4, r4, r1
 124 008c CB17     		asrs	r3, r1, #31
 125 008e C3EBA404 		rsb	r4, r3, r4, asr #2
 126              	.LVL10:
  57:exercise6.c   ****         wakeUpHours = wakeUpHours % 24;
 127              		.loc 1 57 0
 128 0092 04EB4403 		add	r3, r4, r4, lsl #1
 129 0096 DB00     		lsls	r3, r3, #3
 130 0098 C91A     		subs	r1, r1, r3
 131              	.LVL11:
 132 009a 00E0     		b	.L4
 133              	.LVL12:
 134              	.L8:
  28:exercise6.c   **** 
 135              		.loc 1 28 0
 136 009c 0024     		movs	r4, #0
 137              	.LVL13:
 138              	.L4:
  58:exercise6.c   ****     }
  59:exercise6.c   **** 
  60:exercise6.c   ****     //show the wake up time
  61:exercise6.c   ****     printf("If you go to bed now, you must wake up at %02d:%02d", wakeUpHours, wakeUpMinutes);
 139              		.loc 1 61 0
 140 009e 1248     		ldr	r0, .L10+24
 141 00a0 FFF7FEFF 		bl	printf
 142              	.LVL14:
  62:exercise6.c   **** 
  63:exercise6.c   ****     //show if the time is tomorrow, or n days later
  64:exercise6.c   ****     if(dayDiff == 1){
 143              		.loc 1 64 0
 144 00a4 012C     		cmp	r4, #1
 145 00a6 03D1     		bne	.L5
  65:exercise6.c   ****         printf(" the next day.\n");
 146              		.loc 1 65 0
 147 00a8 1048     		ldr	r0, .L10+28
 148 00aa FFF7FEFF 		bl	puts
 149              	.LVL15:
 150 00ae 09E0     		b	.L6
 151              	.L5:
  66:exercise6.c   ****     }
  67:exercise6.c   ****     else if(dayDiff > 1){
 152              		.loc 1 67 0
 153 00b0 012C     		cmp	r4, #1
 154 00b2 04DD     		ble	.L7
  68:exercise6.c   ****         printf(" %d days later.\n", dayDiff);
 155              		.loc 1 68 0
 156 00b4 0E48     		ldr	r0, .L10+32
 157 00b6 2146     		mov	r1, r4
 158 00b8 FFF7FEFF 		bl	printf
 159              	.LVL16:
ARM GAS  C:\Users\vedranb\AppData\Local\Temp\ccP930Yj.s 			page 5


 160 00bc 02E0     		b	.L6
 161              	.L7:
  69:exercise6.c   ****     }
  70:exercise6.c   ****     else{
  71:exercise6.c   ****         printf(".\n");
 162              		.loc 1 71 0
 163 00be 0D48     		ldr	r0, .L10+36
 164 00c0 FFF7FEFF 		bl	puts
 165              	.LVL17:
 166              	.L6:
  72:exercise6.c   ****     }
  73:exercise6.c   **** 
  74:exercise6.c   **** 
  75:exercise6.c   ****     printf("\nEnd of Exercise 6. \n\n");
 167              		.loc 1 75 0
 168 00c4 0C48     		ldr	r0, .L10+40
 169 00c6 FFF7FEFF 		bl	puts
 170              	.LVL18:
  76:exercise6.c   ****     return;
  77:exercise6.c   **** }
 171              		.loc 1 77 0
 172 00ca 04B0     		add	sp, sp, #16
 173              		.cfi_def_cfa_offset 8
 174              		@ sp needed
 175 00cc 10BD     		pop	{r4, pc}
 176              	.LVL19:
 177              	.L11:
 178 00ce 00BF     		.align	2
 179              	.L10:
 180 00d0 00000000 		.word	.LC0
 181 00d4 10000000 		.word	.LC1
 182 00d8 30000000 		.word	.LC2
 183 00dc 38000000 		.word	.LC3
 184 00e0 89888888 		.word	-2004318071
 185 00e4 ABAAAA2A 		.word	715827883
 186 00e8 68000000 		.word	.LC4
 187 00ec 9C000000 		.word	.LC5
 188 00f0 AC000000 		.word	.LC6
 189 00f4 C0000000 		.word	.LC7
 190 00f8 C4000000 		.word	.LC8
 191              		.cfi_endproc
 192              	.LFE63:
 193              		.size	exercise6, .-exercise6
 194              		.section	.rodata.str1.4,"aMS",%progbits,1
 195              		.align	2
 196              	.LC0:
 197 0000 0A0A4578 		.ascii	"\012\012Exercise 6. \012\000"
 197      65726369 
 197      73652036 
 197      2E200A00 
 198              	.LC1:
 199 0010 456E7465 		.ascii	"Enter the current time (hh:mm):\000"
 199      72207468 
 199      65206375 
 199      7272656E 
 199      74207469 
 200              	.LC2:
ARM GAS  C:\Users\vedranb\AppData\Local\Temp\ccP930Yj.s 			page 6


 201 0030 25643A25 		.ascii	"%d:%d\000"
 201      6400
 202 0036 0000     		.space	2
 203              	.LC3:
 204 0038 486F7720 		.ascii	"How much time do you wish to sleep? (hh:mm):\000"
 204      6D756368 
 204      2074696D 
 204      6520646F 
 204      20796F75 
 205 0065 000000   		.space	3
 206              	.LC4:
 207 0068 49662079 		.ascii	"If you go to bed now, you must wake up at %02d:%02d"
 207      6F752067 
 207      6F20746F 
 207      20626564 
 207      206E6F77 
 208 009b 00       		.ascii	"\000"
 209              	.LC5:
 210 009c 20746865 		.ascii	" the next day.\000"
 210      206E6578 
 210      74206461 
 210      792E00
 211 00ab 00       		.space	1
 212              	.LC6:
 213 00ac 20256420 		.ascii	" %d days later.\012\000"
 213      64617973 
 213      206C6174 
 213      65722E0A 
 213      00
 214 00bd 000000   		.space	3
 215              	.LC7:
 216 00c0 2E00     		.ascii	".\000"
 217 00c2 0000     		.space	2
 218              	.LC8:
 219 00c4 0A456E64 		.ascii	"\012End of Exercise 6. \012\000"
 219      206F6620 
 219      45786572 
 219      63697365 
 219      20362E20 
 220 00da 0000     		.text
 221              	.Letext0:
 222              		.file 2 "c:\\program files (x86)\\cypress\\psoc creator\\4.0\\psoc creator\\import\\gnu\\arm\\4.9.
 223              		.file 3 "c:\\program files (x86)\\cypress\\psoc creator\\4.0\\psoc creator\\import\\gnu\\arm\\4.9.
 224              		.file 4 "Generated_Source\\PSoC5/core_cm3.h"
 225              		.file 5 "<built-in>"
 226              		.file 6 "c:\\program files (x86)\\cypress\\psoc creator\\4.0\\psoc creator\\import\\gnu\\arm\\4.9.