ARM GAS  C:\Users\vedranb\AppData\Local\Temp\ccjOEJZL.s 			page 1


   1              		.syntax unified
   2              		.cpu cortex-m3
   3              		.fpu softvfp
   4              		.eabi_attribute 20, 1
   5              		.eabi_attribute 21, 1
   6              		.eabi_attribute 23, 3
   7              		.eabi_attribute 24, 1
   8              		.eabi_attribute 25, 1
   9              		.eabi_attribute 26, 1
  10              		.eabi_attribute 30, 1
  11              		.eabi_attribute 34, 1
  12              		.eabi_attribute 18, 4
  13              		.thumb
  14              		.file	"exercise21.c"
  15              		.text
  16              	.Ltext0:
  17              		.cfi_sections	.debug_frame
  18              		.section	.text.enterStudentName,"ax",%progbits
  19              		.align	2
  20              		.global	enterStudentName
  21              		.thumb
  22              		.thumb_func
  23              		.type	enterStudentName, %function
  24              	enterStudentName:
  25              	.LFB63:
  26              		.file 1 "exercise21.c"
   1:exercise21.c  **** /* ========================================
   2:exercise21.c  ****  *
   3:exercise21.c  ****  * Copyright YOUR COMPANY, THE YEAR
   4:exercise21.c  ****  * All Rights Reserved
   5:exercise21.c  ****  * UNPUBLISHED, LICENSED SOFTWARE.
   6:exercise21.c  ****  *
   7:exercise21.c  ****  * CONFIDENTIAL AND PROPRIETARY INFORMATION
   8:exercise21.c  ****  * WHICH IS THE PROPERTY OF your company.
   9:exercise21.c  ****  *
  10:exercise21.c  ****  * ========================================
  11:exercise21.c  **** */
  12:exercise21.c  **** //Exercise 1
  13:exercise21.c  **** #include "project.h"
  14:exercise21.c  **** #include <stdio.h>
  15:exercise21.c  **** #include "common_functions.h"
  16:exercise21.c  **** 
  17:exercise21.c  **** #define NUMBER_OF_STUDENTS 5
  18:exercise21.c  **** #define MAX_NAME_LENGTH 30
  19:exercise21.c  **** 
  20:exercise21.c  **** 
  21:exercise21.c  **** struct student{
  22:exercise21.c  ****     char firstname[MAX_NAME_LENGTH];
  23:exercise21.c  ****     char lastname[MAX_NAME_LENGTH];
  24:exercise21.c  ****     int  credits;
  25:exercise21.c  **** };
  26:exercise21.c  **** 
  27:exercise21.c  **** void enterStudentName(char * stu, char nName[], int stuNumber){
  27              		.loc 1 27 0
  28              		.cfi_startproc
  29              		@ args = 0, pretend = 0, frame = 32
  30              		@ frame_needed = 0, uses_anonymous_args = 0
ARM GAS  C:\Users\vedranb\AppData\Local\Temp\ccjOEJZL.s 			page 2


  31              	.LVL0:
  32 0000 F0B5     		push	{r4, r5, r6, r7, lr}
  33              		.cfi_def_cfa_offset 20
  34              		.cfi_offset 4, -20
  35              		.cfi_offset 5, -16
  36              		.cfi_offset 6, -12
  37              		.cfi_offset 7, -8
  38              		.cfi_offset 14, -4
  39 0002 89B0     		sub	sp, sp, #36
  40              		.cfi_def_cfa_offset 56
  41 0004 0546     		mov	r5, r0
  42 0006 0F46     		mov	r7, r1
  43 0008 1646     		mov	r6, r2
  28:exercise21.c  ****     
  29:exercise21.c  ****     char temp[MAX_NAME_LENGTH] = "";
  44              		.loc 1 29 0
  45 000a 0023     		movs	r3, #0
  46 000c 0093     		str	r3, [sp]
  47 000e 0193     		str	r3, [sp, #4]
  48 0010 0293     		str	r3, [sp, #8]
  49 0012 0393     		str	r3, [sp, #12]
  50 0014 0493     		str	r3, [sp, #16]
  51 0016 0593     		str	r3, [sp, #20]
  52 0018 0693     		str	r3, [sp, #24]
  53 001a ADF81C30 		strh	r3, [sp, #28]	@ movhi
  54              	.LVL1:
  55              	.L5:
  30:exercise21.c  ****     unsigned i;
  31:exercise21.c  ****     
  32:exercise21.c  ****     do{
  33:exercise21.c  ****         printf("Enter %s name for sutudent %d.\n", nName, stuNumber);
  56              		.loc 1 33 0
  57 001e 1748     		ldr	r0, .L7
  58 0020 3946     		mov	r1, r7
  59 0022 3246     		mov	r2, r6
  60 0024 FFF7FEFF 		bl	printf
  61              	.LVL2:
  34:exercise21.c  ****         fgets(temp, MAX_NAME_LENGTH, stdin);
  62              		.loc 1 34 0
  63 0028 154B     		ldr	r3, .L7+4
  64 002a 1B68     		ldr	r3, [r3]
  65 002c 6846     		mov	r0, sp
  66 002e 1E21     		movs	r1, #30
  67 0030 5A68     		ldr	r2, [r3, #4]
  68 0032 FFF7FEFF 		bl	fgets
  69              	.LVL3:
  35:exercise21.c  ****         if(temp[strlen(temp) - 1] == '\n') { temp[strlen(temp) - 1] = '\0'; }
  70              		.loc 1 35 0
  71 0036 6846     		mov	r0, sp
  72 0038 FFF7FEFF 		bl	strlen
  73              	.LVL4:
  74 003c 0138     		subs	r0, r0, #1
  75 003e 08AB     		add	r3, sp, #32
  76 0040 0344     		add	r3, r3, r0
  77 0042 13F8203C 		ldrb	r3, [r3, #-32]	@ zero_extendqisi2
  78 0046 0A2B     		cmp	r3, #10
  79 0048 04D1     		bne	.L2
ARM GAS  C:\Users\vedranb\AppData\Local\Temp\ccjOEJZL.s 			page 3


  80              		.loc 1 35 0 is_stmt 0 discriminator 1
  81 004a 08AB     		add	r3, sp, #32
  82 004c 1844     		add	r0, r0, r3
  83 004e 0023     		movs	r3, #0
  84 0050 00F8203C 		strb	r3, [r0, #-32]
  85              	.L2:
  27:exercise21.c  ****     
  86              		.loc 1 27 0 is_stmt 1 discriminator 1
  87 0054 0024     		movs	r4, #0
  88 0056 05E0     		b	.L3
  89              	.LVL5:
  90              	.L4:
  36:exercise21.c  ****             
  37:exercise21.c  ****         for(i=0; i < strlen(temp); i++){
  38:exercise21.c  ****             stu[i] = temp[i];
  91              		.loc 1 38 0 discriminator 3
  92 0058 08AB     		add	r3, sp, #32
  93 005a 2344     		add	r3, r3, r4
  94 005c 13F8203C 		ldrb	r3, [r3, #-32]	@ zero_extendqisi2
  95 0060 2B55     		strb	r3, [r5, r4]
  37:exercise21.c  ****             stu[i] = temp[i];
  96              		.loc 1 37 0 discriminator 3
  97 0062 0134     		adds	r4, r4, #1
  98              	.LVL6:
  99              	.L3:
  37:exercise21.c  ****             stu[i] = temp[i];
 100              		.loc 1 37 0 is_stmt 0 discriminator 1
 101 0064 6846     		mov	r0, sp
 102 0066 FFF7FEFF 		bl	strlen
 103              	.LVL7:
 104 006a A042     		cmp	r0, r4
 105 006c F4D8     		bhi	.L4
  39:exercise21.c  ****         }
  40:exercise21.c  ****     }
  41:exercise21.c  ****     while(strlen(temp)==0);
 106              		.loc 1 41 0 is_stmt 1
 107 006e 9DF80030 		ldrb	r3, [sp]	@ zero_extendqisi2
 108 0072 002B     		cmp	r3, #0
 109 0074 D3D0     		beq	.L5
  42:exercise21.c  ****     
  43:exercise21.c  ****     return;
  44:exercise21.c  **** }
 110              		.loc 1 44 0
 111 0076 09B0     		add	sp, sp, #36
 112              		.cfi_def_cfa_offset 20
 113              		@ sp needed
 114 0078 F0BD     		pop	{r4, r5, r6, r7, pc}
 115              	.LVL8:
 116              	.L8:
 117 007a 00BF     		.align	2
 118              	.L7:
 119 007c 00000000 		.word	.LC0
 120 0080 00000000 		.word	_impure_ptr
 121              		.cfi_endproc
 122              	.LFE63:
 123              		.size	enterStudentName, .-enterStudentName
 124              		.section	.text.enterStudentCredits,"ax",%progbits
ARM GAS  C:\Users\vedranb\AppData\Local\Temp\ccjOEJZL.s 			page 4


 125              		.align	2
 126              		.global	enterStudentCredits
 127              		.thumb
 128              		.thumb_func
 129              		.type	enterStudentCredits, %function
 130              	enterStudentCredits:
 131              	.LFB64:
  45:exercise21.c  **** 
  46:exercise21.c  **** void enterStudentCredits(int * cred, int stuNumber){
 132              		.loc 1 46 0
 133              		.cfi_startproc
 134              		@ args = 0, pretend = 0, frame = 0
 135              		@ frame_needed = 0, uses_anonymous_args = 0
 136              	.LVL9:
 137 0000 10B5     		push	{r4, lr}
 138              		.cfi_def_cfa_offset 8
 139              		.cfi_offset 4, -8
 140              		.cfi_offset 14, -4
 141 0002 0446     		mov	r4, r0
  47:exercise21.c  ****     
  48:exercise21.c  ****     printf("Please enter credits for Student %d:\n", stuNumber);
 142              		.loc 1 48 0
 143 0004 0348     		ldr	r0, .L11
 144              	.LVL10:
 145 0006 FFF7FEFF 		bl	printf
 146              	.LVL11:
  49:exercise21.c  ****     do{
  50:exercise21.c  ****         *cred = readInt();
 147              		.loc 1 50 0
 148 000a FFF7FEFF 		bl	readInt
 149              	.LVL12:
 150 000e 2060     		str	r0, [r4]
 151 0010 10BD     		pop	{r4, pc}
 152              	.LVL13:
 153              	.L12:
 154 0012 00BF     		.align	2
 155              	.L11:
 156 0014 20000000 		.word	.LC1
 157              		.cfi_endproc
 158              	.LFE64:
 159              		.size	enterStudentCredits, .-enterStudentCredits
 160              		.section	.text.exercise21,"ax",%progbits
 161              		.align	2
 162              		.global	exercise21
 163              		.thumb
 164              		.thumb_func
 165              		.type	exercise21, %function
 166              	exercise21:
 167              	.LFB65:
  51:exercise21.c  ****         if (cred < 0){
  52:exercise21.c  ****             printf("Please enter a positive number of credits:");
  53:exercise21.c  ****         }
  54:exercise21.c  ****     }
  55:exercise21.c  ****     while(cred < 0);
  56:exercise21.c  ****     
  57:exercise21.c  ****     return;
  58:exercise21.c  ****     
ARM GAS  C:\Users\vedranb\AppData\Local\Temp\ccjOEJZL.s 			page 5


  59:exercise21.c  **** }
  60:exercise21.c  **** 
  61:exercise21.c  **** void exercise21(void)
  62:exercise21.c  **** {
 168              		.loc 1 62 0
 169              		.cfi_startproc
 170              		@ args = 0, pretend = 0, frame = 320
 171              		@ frame_needed = 0, uses_anonymous_args = 0
 172 0000 30B5     		push	{r4, r5, lr}
 173              		.cfi_def_cfa_offset 12
 174              		.cfi_offset 4, -12
 175              		.cfi_offset 5, -8
 176              		.cfi_offset 14, -4
 177 0002 D1B0     		sub	sp, sp, #324
 178              		.cfi_def_cfa_offset 336
  63:exercise21.c  ****     printf("\n\nExercise 21. \n\n");
 179              		.loc 1 63 0
 180 0004 2848     		ldr	r0, .L22
 181 0006 FFF7FEFF 		bl	puts
 182              	.LVL14:
  64:exercise21.c  ****     struct student studentRecord[NUMBER_OF_STUDENTS]={};
 183              		.loc 1 64 0
 184 000a 6846     		mov	r0, sp
 185 000c 0021     		movs	r1, #0
 186 000e 4FF4A072 		mov	r2, #320
 187 0012 FFF7FEFF 		bl	memset
 188              	.LVL15:
  65:exercise21.c  ****     //clear \n from menu selection
  66:exercise21.c  ****     
  67:exercise21.c  ****     
  68:exercise21.c  ****     unsigned i;
  69:exercise21.c  ****     
  70:exercise21.c  ****     for(i=0; i < NUMBER_OF_STUDENTS; i++){
 189              		.loc 1 70 0
 190 0016 0025     		movs	r5, #0
 191 0018 2DE0     		b	.L14
 192              	.LVL16:
 193              	.L18:
 194              	.LBB2:
  71:exercise21.c  ****         int c;
  72:exercise21.c  ****         while ( (c = getchar()) != EOF && c != '\n') { }
 195              		.loc 1 72 0 discriminator 6
 196 001a 244B     		ldr	r3, .L22+4
 197 001c 1C68     		ldr	r4, [r3]
 198 001e 6068     		ldr	r0, [r4, #4]
 199 0020 4368     		ldr	r3, [r0, #4]
 200 0022 013B     		subs	r3, r3, #1
 201 0024 4360     		str	r3, [r0, #4]
 202 0026 002B     		cmp	r3, #0
 203 0028 04DA     		bge	.L15
 204              		.loc 1 72 0 is_stmt 0 discriminator 1
 205 002a 2046     		mov	r0, r4
 206 002c 6168     		ldr	r1, [r4, #4]
 207 002e FFF7FEFF 		bl	__srget_r
 208              	.LVL17:
 209 0032 06E0     		b	.L16
 210              	.L15:
ARM GAS  C:\Users\vedranb\AppData\Local\Temp\ccjOEJZL.s 			page 6


 211              		.loc 1 72 0 discriminator 2
 212 0034 1D4B     		ldr	r3, .L22+4
 213 0036 1B68     		ldr	r3, [r3]
 214 0038 5868     		ldr	r0, [r3, #4]
 215 003a 0368     		ldr	r3, [r0]
 216 003c 5A1C     		adds	r2, r3, #1
 217 003e 0260     		str	r2, [r0]
 218 0040 1878     		ldrb	r0, [r3]	@ zero_extendqisi2
 219              	.L16:
 220              	.LVL18:
 221              		.loc 1 72 0 discriminator 4
 222 0042 B0F1FF3F 		cmp	r0, #-1
 223 0046 01D0     		beq	.L17
 224              		.loc 1 72 0 discriminator 5
 225 0048 0A28     		cmp	r0, #10
 226 004a E6D1     		bne	.L18
 227              	.L17:
  73:exercise21.c  **** 
  74:exercise21.c  ****         enterStudentName(studentRecord[i].firstname, "first", i+1);
 228              		.loc 1 74 0 is_stmt 1 discriminator 2
 229 004c AC01     		lsls	r4, r5, #6
 230 004e 0135     		adds	r5, r5, #1
 231              	.LVL19:
 232 0050 0DEB0400 		add	r0, sp, r4
 233              	.LVL20:
 234 0054 1649     		ldr	r1, .L22+8
 235 0056 2A46     		mov	r2, r5
 236 0058 FFF7FEFF 		bl	enterStudentName
 237              	.LVL21:
  75:exercise21.c  ****         enterStudentName(studentRecord[i].lastname, "last", i+1);
 238              		.loc 1 75 0 discriminator 2
 239 005c 0DEB0400 		add	r0, sp, r4
 240 0060 1E30     		adds	r0, r0, #30
 241 0062 1449     		ldr	r1, .L22+12
 242 0064 2A46     		mov	r2, r5
 243 0066 FFF7FEFF 		bl	enterStudentName
 244              	.LVL22:
  76:exercise21.c  ****         enterStudentCredits(&studentRecord[i].credits, i+1);
 245              		.loc 1 76 0 discriminator 2
 246 006a 0DEB0400 		add	r0, sp, r4
 247 006e 3C30     		adds	r0, r0, #60
 248 0070 2946     		mov	r1, r5
 249 0072 FFF7FEFF 		bl	enterStudentCredits
 250              	.LVL23:
 251              	.L14:
 252              	.LBE2:
  70:exercise21.c  ****         int c;
 253              		.loc 1 70 0 discriminator 1
 254 0076 042D     		cmp	r5, #4
 255 0078 CFD9     		bls	.L18
  77:exercise21.c  ****     }
  78:exercise21.c  ****     
  79:exercise21.c  ****     printf("\nHere is the data you entered:\n\n");
 256              		.loc 1 79 0
 257 007a 0F48     		ldr	r0, .L22+16
 258 007c FFF7FEFF 		bl	puts
 259              	.LVL24:
ARM GAS  C:\Users\vedranb\AppData\Local\Temp\ccjOEJZL.s 			page 7


  80:exercise21.c  ****     for(i=0; i < NUMBER_OF_STUDENTS; i++){
 260              		.loc 1 80 0
 261 0080 0024     		movs	r4, #0
 262 0082 0AE0     		b	.L19
 263              	.LVL25:
 264              	.L20:
  81:exercise21.c  ****         printf("%-30s\t%-30s\t%-3d\n", 
  82:exercise21.c  ****             studentRecord[i].firstname, 
 265              		.loc 1 82 0 discriminator 3
 266 0084 A201     		lsls	r2, r4, #6
 267 0086 0DEB0203 		add	r3, sp, r2
  83:exercise21.c  ****             studentRecord[i].lastname, 
 268              		.loc 1 83 0 discriminator 3
 269 008a 1A46     		mov	r2, r3
  81:exercise21.c  ****         printf("%-30s\t%-30s\t%-3d\n", 
 270              		.loc 1 81 0 discriminator 3
 271 008c 0B48     		ldr	r0, .L22+20
 272 008e 1946     		mov	r1, r3
 273 0090 1E32     		adds	r2, r2, #30
 274 0092 DB6B     		ldr	r3, [r3, #60]
 275 0094 FFF7FEFF 		bl	printf
 276              	.LVL26:
  80:exercise21.c  ****     for(i=0; i < NUMBER_OF_STUDENTS; i++){
 277              		.loc 1 80 0 discriminator 3
 278 0098 0134     		adds	r4, r4, #1
 279              	.LVL27:
 280              	.L19:
  80:exercise21.c  ****     for(i=0; i < NUMBER_OF_STUDENTS; i++){
 281              		.loc 1 80 0 is_stmt 0 discriminator 1
 282 009a 042C     		cmp	r4, #4
 283 009c F2D9     		bls	.L20
  84:exercise21.c  ****             studentRecord[i].credits);
  85:exercise21.c  ****     }
  86:exercise21.c  ****     
  87:exercise21.c  ****     printf("End of Exercise 21 \n\n");
 284              		.loc 1 87 0 is_stmt 1
 285 009e 0848     		ldr	r0, .L22+24
 286 00a0 FFF7FEFF 		bl	puts
 287              	.LVL28:
  88:exercise21.c  ****     return;
  89:exercise21.c  **** }
 288              		.loc 1 89 0
 289 00a4 51B0     		add	sp, sp, #324
 290              		.cfi_def_cfa_offset 12
 291              		@ sp needed
 292 00a6 30BD     		pop	{r4, r5, pc}
 293              	.LVL29:
 294              	.L23:
 295              		.align	2
 296              	.L22:
 297 00a8 48000000 		.word	.LC2
 298 00ac 00000000 		.word	_impure_ptr
 299 00b0 5C000000 		.word	.LC3
 300 00b4 64000000 		.word	.LC4
 301 00b8 6C000000 		.word	.LC5
 302 00bc 8C000000 		.word	.LC6
 303 00c0 A0000000 		.word	.LC7
ARM GAS  C:\Users\vedranb\AppData\Local\Temp\ccjOEJZL.s 			page 8


 304              		.cfi_endproc
 305              	.LFE65:
 306              		.size	exercise21, .-exercise21
 307              		.section	.rodata.str1.4,"aMS",%progbits,1
 308              		.align	2
 309              	.LC0:
 310 0000 456E7465 		.ascii	"Enter %s name for sutudent %d.\012\000"
 310      72202573 
 310      206E616D 
 310      6520666F 
 310      72207375 
 311              	.LC1:
 312 0020 506C6561 		.ascii	"Please enter credits for Student %d:\012\000"
 312      73652065 
 312      6E746572 
 312      20637265 
 312      64697473 
 313 0046 0000     		.space	2
 314              	.LC2:
 315 0048 0A0A4578 		.ascii	"\012\012Exercise 21. \012\000"
 315      65726369 
 315      73652032 
 315      312E200A 
 315      00
 316 0059 000000   		.space	3
 317              	.LC3:
 318 005c 66697273 		.ascii	"first\000"
 318      7400
 319 0062 0000     		.space	2
 320              	.LC4:
 321 0064 6C617374 		.ascii	"last\000"
 321      00
 322 0069 000000   		.space	3
 323              	.LC5:
 324 006c 0A486572 		.ascii	"\012Here is the data you entered:\012\000"
 324      65206973 
 324      20746865 
 324      20646174 
 324      6120796F 
 325              	.LC6:
 326 008c 252D3330 		.ascii	"%-30s\011%-30s\011%-3d\012\000"
 326      7309252D 
 326      33307309 
 326      252D3364 
 326      0A00
 327 009e 0000     		.space	2
 328              	.LC7:
 329 00a0 456E6420 		.ascii	"End of Exercise 21 \012\000"
 329      6F662045 
 329      78657263 
 329      69736520 
 329      3231200A 
 330 00b5 000000   		.text
 331              	.Letext0:
 332              		.file 2 "c:\\program files (x86)\\cypress\\psoc creator\\4.0\\psoc creator\\import\\gnu\\arm\\4.9.
 333              		.file 3 "c:\\program files (x86)\\cypress\\psoc creator\\4.0\\psoc creator\\import\\gnu\\arm\\4.9.
 334              		.file 4 "c:\\program files (x86)\\cypress\\psoc creator\\4.0\\psoc creator\\import\\gnu\\arm\\4.9.
ARM GAS  C:\Users\vedranb\AppData\Local\Temp\ccjOEJZL.s 			page 9


 335              		.file 5 "c:\\program files (x86)\\cypress\\psoc creator\\4.0\\psoc creator\\import\\gnu\\arm\\4.9.
 336              		.file 6 "c:\\program files (x86)\\cypress\\psoc creator\\4.0\\psoc creator\\import\\gnu\\arm\\4.9.
 337              		.file 7 "c:\\program files (x86)\\cypress\\psoc creator\\4.0\\psoc creator\\import\\gnu\\arm\\4.9.
 338              		.file 8 "c:\\program files (x86)\\cypress\\psoc creator\\4.0\\psoc creator\\import\\gnu\\arm\\4.9.
 339              		.file 9 "Generated_Source\\PSoC5/core_cm3.h"
 340              		.file 10 "c:\\program files (x86)\\cypress\\psoc creator\\4.0\\psoc creator\\import\\gnu\\arm\\4.9
 341              		.file 11 "common_functions.h"
 342              		.file 12 "<built-in>"