ARM GAS  C:\Users\vedranb\AppData\Local\Temp\ccEziyUo.s 			page 1


   1              		.syntax unified
   2              		.cpu cortex-m3
   3              		.fpu softvfp
   4              		.eabi_attribute 20, 1
   5              		.eabi_attribute 21, 1
   6              		.eabi_attribute 23, 3
   7              		.eabi_attribute 24, 1
   8              		.eabi_attribute 25, 1
   9              		.eabi_attribute 26, 1
  10              		.eabi_attribute 30, 1
  11              		.eabi_attribute 34, 1
  12              		.eabi_attribute 18, 4
  13              		.thumb
  14              		.file	"exercise7.c"
  15              		.text
  16              	.Ltext0:
  17              		.cfi_sections	.debug_frame
  18              		.section	.text.exercise7,"ax",%progbits
  19              		.align	2
  20              		.global	exercise7
  21              		.thumb
  22              		.thumb_func
  23              		.type	exercise7, %function
  24              	exercise7:
  25              	.LFB63:
  26              		.file 1 "exercise7.c"
   1:exercise7.c   **** /* ========================================
   2:exercise7.c   ****  *
   3:exercise7.c   ****  * Copyright YOUR COMPANY, THE YEAR
   4:exercise7.c   ****  * All Rights Reserved
   5:exercise7.c   ****  * UNPUBLISHED, LICENSED SOFTWARE.
   6:exercise7.c   ****  *
   7:exercise7.c   ****  * CONFIDENTIAL AND PROPRIETARY INFORMATION
   8:exercise7.c   ****  * WHICH IS THE PROPERTY OF your company.
   9:exercise7.c   ****  *
  10:exercise7.c   ****  * ========================================
  11:exercise7.c   **** */
  12:exercise7.c   **** #include "project.h"
  13:exercise7.c   **** #include <stdio.h>
  14:exercise7.c   **** #include "common_functions.h"
  15:exercise7.c   **** 
  16:exercise7.c   **** #define ARRSIZE 12
  17:exercise7.c   **** 
  18:exercise7.c   **** 
  19:exercise7.c   **** void exercise7(void)
  20:exercise7.c   **** {
  27              		.loc 1 20 0
  28              		.cfi_startproc
  29              		@ args = 0, pretend = 0, frame = 48
  30              		@ frame_needed = 0, uses_anonymous_args = 0
  31 0000 10B5     		push	{r4, lr}
  32              		.cfi_def_cfa_offset 8
  33              		.cfi_offset 4, -8
  34              		.cfi_offset 14, -4
  35 0002 8CB0     		sub	sp, sp, #48
  36              		.cfi_def_cfa_offset 56
  21:exercise7.c   ****      //Exercise 7
ARM GAS  C:\Users\vedranb\AppData\Local\Temp\ccEziyUo.s 			page 2


  22:exercise7.c   ****     printf("\n\nExercise 7. \n\n");
  37              		.loc 1 22 0
  38 0004 1F48     		ldr	r0, .L9
  39 0006 FFF7FEFF 		bl	puts
  40              	.LVL0:
  23:exercise7.c   **** 
  24:exercise7.c   ****     //declare the array and initialize all elements to 0
  25:exercise7.c   ****     int arr[ARRSIZE]={0};
  41              		.loc 1 25 0
  42 000a 0023     		movs	r3, #0
  43 000c 0193     		str	r3, [sp, #4]
  44 000e 0293     		str	r3, [sp, #8]
  45 0010 0393     		str	r3, [sp, #12]
  46 0012 0493     		str	r3, [sp, #16]
  47 0014 0593     		str	r3, [sp, #20]
  48 0016 0693     		str	r3, [sp, #24]
  49 0018 0793     		str	r3, [sp, #28]
  50 001a 0893     		str	r3, [sp, #32]
  51 001c 0993     		str	r3, [sp, #36]
  52 001e 0A93     		str	r3, [sp, #40]
  53 0020 0B93     		str	r3, [sp, #44]
  26:exercise7.c   **** 
  27:exercise7.c   ****     printf("Please enter the starting number: ");
  54              		.loc 1 27 0
  55 0022 1948     		ldr	r0, .L9+4
  56 0024 FFF7FEFF 		bl	printf
  57              	.LVL1:
  28:exercise7.c   ****     arr[0] = readInt();
  58              		.loc 1 28 0
  59 0028 FFF7FEFF 		bl	readInt
  60              	.LVL2:
  61 002c 0090     		str	r0, [sp]
  62              	.LVL3:
  29:exercise7.c   **** 
  30:exercise7.c   ****     //first loop to fill up the array
  31:exercise7.c   ****     int i;
  32:exercise7.c   ****     for(i = 1; i < ARRSIZE; i++){
  63              		.loc 1 32 0
  64 002e 0123     		movs	r3, #1
  65 0030 0BE0     		b	.L2
  66              	.LVL4:
  67              	.L3:
  33:exercise7.c   ****         arr[i] = arr[i-1] + 1;
  68              		.loc 1 33 0 discriminator 3
  69 0032 0CAA     		add	r2, sp, #48
  70 0034 02EB8302 		add	r2, r2, r3, lsl #2
  71 0038 52F8342C 		ldr	r2, [r2, #-52]
  72 003c 0132     		adds	r2, r2, #1
  73 003e 0CA9     		add	r1, sp, #48
  74 0040 01EB8301 		add	r1, r1, r3, lsl #2
  75 0044 41F8302C 		str	r2, [r1, #-48]
  32:exercise7.c   ****         arr[i] = arr[i-1] + 1;
  76              		.loc 1 32 0 discriminator 3
  77 0048 0133     		adds	r3, r3, #1
  78              	.LVL5:
  79              	.L2:
  32:exercise7.c   ****         arr[i] = arr[i-1] + 1;
ARM GAS  C:\Users\vedranb\AppData\Local\Temp\ccEziyUo.s 			page 3


  80              		.loc 1 32 0 is_stmt 0 discriminator 1
  81 004a 0B2B     		cmp	r3, #11
  82 004c F1DD     		ble	.L3
  83 004e 0024     		movs	r4, #0
  84 0050 11E0     		b	.L4
  85              	.LVL6:
  86              	.L7:
  34:exercise7.c   ****     }
  35:exercise7.c   **** 
  36:exercise7.c   **** 
  37:exercise7.c   ****     //second loop to print out the array
  38:exercise7.c   ****     for(i = 0; i < ARRSIZE; i++){
  39:exercise7.c   ****         //print only the value here (just into the buffer for now)
  40:exercise7.c   ****         printf("%d", arr[i]);
  87              		.loc 1 40 0 is_stmt 1
  88 0052 0E48     		ldr	r0, .L9+8
  89 0054 0CAB     		add	r3, sp, #48
  90 0056 03EB8403 		add	r3, r3, r4, lsl #2
  91 005a 53F8301C 		ldr	r1, [r3, #-48]
  92 005e FFF7FEFF 		bl	printf
  93              	.LVL7:
  41:exercise7.c   **** 
  42:exercise7.c   ****         //check if it is the last element of the array, if it is don't print a comma,
  43:exercise7.c   ****         //otherwise print a comma after every number
  44:exercise7.c   ****         if(i < 11){
  94              		.loc 1 44 0
  95 0062 0A2C     		cmp	r4, #10
  96 0064 03DC     		bgt	.L5
  45:exercise7.c   ****             printf(", ");
  97              		.loc 1 45 0
  98 0066 0A48     		ldr	r0, .L9+12
  99 0068 FFF7FEFF 		bl	printf
 100              	.LVL8:
 101 006c 02E0     		b	.L6
 102              	.L5:
  46:exercise7.c   ****         }
  47:exercise7.c   ****         //if the element is the last one, don't print the comma,
  48:exercise7.c   ****         //end the buffer instead and print all of it out.
  49:exercise7.c   ****         else printf("\n");
 103              		.loc 1 49 0
 104 006e 0A20     		movs	r0, #10
 105 0070 FFF7FEFF 		bl	putchar
 106              	.LVL9:
 107              	.L6:
  38:exercise7.c   ****         //print only the value here (just into the buffer for now)
 108              		.loc 1 38 0 discriminator 2
 109 0074 0134     		adds	r4, r4, #1
 110              	.LVL10:
 111              	.L4:
  38:exercise7.c   ****         //print only the value here (just into the buffer for now)
 112              		.loc 1 38 0 is_stmt 0 discriminator 1
 113 0076 0B2C     		cmp	r4, #11
 114 0078 EBDD     		ble	.L7
  50:exercise7.c   ****     }
  51:exercise7.c   **** 
  52:exercise7.c   ****     printf("\nEnd of Exercise 7. \n\n");
 115              		.loc 1 52 0 is_stmt 1
ARM GAS  C:\Users\vedranb\AppData\Local\Temp\ccEziyUo.s 			page 4


 116 007a 0648     		ldr	r0, .L9+16
 117 007c FFF7FEFF 		bl	puts
 118              	.LVL11:
  53:exercise7.c   ****     return;
  54:exercise7.c   **** }
 119              		.loc 1 54 0
 120 0080 0CB0     		add	sp, sp, #48
 121              		.cfi_def_cfa_offset 8
 122              		@ sp needed
 123 0082 10BD     		pop	{r4, pc}
 124              	.LVL12:
 125              	.L10:
 126              		.align	2
 127              	.L9:
 128 0084 00000000 		.word	.LC0
 129 0088 10000000 		.word	.LC1
 130 008c 34000000 		.word	.LC2
 131 0090 38000000 		.word	.LC3
 132 0094 3C000000 		.word	.LC4
 133              		.cfi_endproc
 134              	.LFE63:
 135              		.size	exercise7, .-exercise7
 136              		.section	.rodata.str1.4,"aMS",%progbits,1
 137              		.align	2
 138              	.LC0:
 139 0000 0A0A4578 		.ascii	"\012\012Exercise 7. \012\000"
 139      65726369 
 139      73652037 
 139      2E200A00 
 140              	.LC1:
 141 0010 506C6561 		.ascii	"Please enter the starting number: \000"
 141      73652065 
 141      6E746572 
 141      20746865 
 141      20737461 
 142 0033 00       		.space	1
 143              	.LC2:
 144 0034 256400   		.ascii	"%d\000"
 145 0037 00       		.space	1
 146              	.LC3:
 147 0038 2C2000   		.ascii	", \000"
 148 003b 00       		.space	1
 149              	.LC4:
 150 003c 0A456E64 		.ascii	"\012End of Exercise 7. \012\000"
 150      206F6620 
 150      45786572 
 150      63697365 
 150      20372E20 
 151 0052 0000     		.text
 152              	.Letext0:
 153              		.file 2 "c:\\program files (x86)\\cypress\\psoc creator\\4.0\\psoc creator\\import\\gnu\\arm\\4.9.
 154              		.file 3 "c:\\program files (x86)\\cypress\\psoc creator\\4.0\\psoc creator\\import\\gnu\\arm\\4.9.
 155              		.file 4 "c:\\program files (x86)\\cypress\\psoc creator\\4.0\\psoc creator\\import\\gnu\\arm\\4.9.
 156              		.file 5 "<built-in>"
 157              		.file 6 "Generated_Source\\PSoC5/core_cm3.h"
 158              		.file 7 "common_functions.h"