ARM GAS  C:\Users\vedranb\AppData\Local\Temp\ccrxUx3E.s 			page 1


   1              		.syntax unified
   2              		.cpu cortex-m3
   3              		.fpu softvfp
   4              		.eabi_attribute 20, 1
   5              		.eabi_attribute 21, 1
   6              		.eabi_attribute 23, 3
   7              		.eabi_attribute 24, 1
   8              		.eabi_attribute 25, 1
   9              		.eabi_attribute 26, 1
  10              		.eabi_attribute 30, 1
  11              		.eabi_attribute 34, 1
  12              		.eabi_attribute 18, 4
  13              		.thumb
  14              		.file	"exercise4.c"
  15              		.text
  16              	.Ltext0:
  17              		.cfi_sections	.debug_frame
  18              		.section	.text.exercise4,"ax",%progbits
  19              		.align	2
  20              		.global	exercise4
  21              		.thumb
  22              		.thumb_func
  23              		.type	exercise4, %function
  24              	exercise4:
  25              	.LFB63:
  26              		.file 1 "exercise4.c"
   1:exercise4.c   **** /* ========================================
   2:exercise4.c   ****  *
   3:exercise4.c   ****  * Copyright YOUR COMPANY, THE YEAR
   4:exercise4.c   ****  * All Rights Reserved
   5:exercise4.c   ****  * UNPUBLISHED, LICENSED SOFTWARE.
   6:exercise4.c   ****  *
   7:exercise4.c   ****  * CONFIDENTIAL AND PROPRIETARY INFORMATION
   8:exercise4.c   ****  * WHICH IS THE PROPERTY OF your company.
   9:exercise4.c   ****  *
  10:exercise4.c   ****  * ========================================
  11:exercise4.c   **** */
  12:exercise4.c   **** //Exercise 4
  13:exercise4.c   **** #include "project.h"
  14:exercise4.c   **** #include <stdio.h>
  15:exercise4.c   **** 
  16:exercise4.c   **** void exercise4(void)
  17:exercise4.c   **** {
  27              		.loc 1 17 0
  28              		.cfi_startproc
  29              		@ args = 0, pretend = 0, frame = 64
  30              		@ frame_needed = 0, uses_anonymous_args = 0
  31 0000 30B5     		push	{r4, r5, lr}
  32              		.cfi_def_cfa_offset 12
  33              		.cfi_offset 4, -12
  34              		.cfi_offset 5, -8
  35              		.cfi_offset 14, -4
  36 0002 91B0     		sub	sp, sp, #68
  37              		.cfi_def_cfa_offset 80
  18:exercise4.c   ****     printf("\n\nExercise 4. \n\n");
  38              		.loc 1 18 0
  39 0004 4448     		ldr	r0, .L13
ARM GAS  C:\Users\vedranb\AppData\Local\Temp\ccrxUx3E.s 			page 2


  40 0006 FFF7FEFF 		bl	puts
  41              	.LVL0:
  19:exercise4.c   **** 
  20:exercise4.c   ****     //take today's date and print tomorrow's taking into account the month and year ending
  21:exercise4.c   ****     //put 29 days for february by default to pass the generic date format test.
  22:exercise4.c   ****     int ex4month_length[12] = {31,29,31,30,31,30,31,31,30,31,30,31};
  42              		.loc 1 22 0
  43 000a 04AC     		add	r4, sp, #16
  44 000c 434D     		ldr	r5, .L13+4
  45 000e 0FCD     		ldmia	r5!, {r0, r1, r2, r3}
  46 0010 0FC4     		stmia	r4!, {r0, r1, r2, r3}
  47 0012 0FCD     		ldmia	r5!, {r0, r1, r2, r3}
  48 0014 0FC4     		stmia	r4!, {r0, r1, r2, r3}
  49 0016 95E80F00 		ldmia	r5, {r0, r1, r2, r3}
  50 001a 84E80F00 		stmia	r4, {r0, r1, r2, r3}
  23:exercise4.c   ****     int ex4year = 0;
  51              		.loc 1 23 0
  52 001e 0023     		movs	r3, #0
  53 0020 0393     		str	r3, [sp, #12]
  24:exercise4.c   ****     int ex4month = 0;
  54              		.loc 1 24 0
  55 0022 0293     		str	r3, [sp, #8]
  25:exercise4.c   ****     int ex4day = 0;
  56              		.loc 1 25 0
  57 0024 10AC     		add	r4, sp, #64
  58 0026 44F83C3D 		str	r3, [r4, #-60]!
  26:exercise4.c   **** 
  27:exercise4.c   ****     printf("Enter today's date (d.m.y):\n");
  59              		.loc 1 27 0
  60 002a 3D48     		ldr	r0, .L13+8
  61 002c FFF7FEFF 		bl	puts
  62              	.LVL1:
  28:exercise4.c   ****     scanf("%d.%d.%d", &ex4day, &ex4month, &ex4year);
  63              		.loc 1 28 0
  64 0030 3C48     		ldr	r0, .L13+12
  65 0032 2146     		mov	r1, r4
  66 0034 02AA     		add	r2, sp, #8
  67 0036 03AB     		add	r3, sp, #12
  68 0038 FFF7FEFF 		bl	scanf
  69              	.LVL2:
  29:exercise4.c   **** 
  30:exercise4.c   ****     //check for obvious date format issue
  31:exercise4.c   ****     if(ex4day > ex4month_length[ex4month-1] || ex4month > 12)
  70              		.loc 1 31 0
  71 003c 029B     		ldr	r3, [sp, #8]
  72 003e 10AA     		add	r2, sp, #64
  73 0040 02EB8302 		add	r2, r2, r3, lsl #2
  74 0044 52F8341C 		ldr	r1, [r2, #-52]
  75 0048 019A     		ldr	r2, [sp, #4]
  76 004a 9142     		cmp	r1, r2
  77 004c 01DB     		blt	.L2
  78              		.loc 1 31 0 is_stmt 0 discriminator 1
  79 004e 0C2B     		cmp	r3, #12
  80 0050 03DD     		ble	.L3
  81              	.L2:
  32:exercise4.c   ****     {
  33:exercise4.c   ****         printf("Date entered in the wrong format. Terminating...\n");
ARM GAS  C:\Users\vedranb\AppData\Local\Temp\ccrxUx3E.s 			page 3


  82              		.loc 1 33 0 is_stmt 1
  83 0052 3548     		ldr	r0, .L13+16
  84 0054 FFF7FEFF 		bl	puts
  85              	.LVL3:
  34:exercise4.c   ****         return;
  86              		.loc 1 34 0
  87 0058 5CE0     		b	.L1
  88              	.L3:
  35:exercise4.c   ****     }
  36:exercise4.c   **** 
  37:exercise4.c   ****     //reducing february to 28 for default value
  38:exercise4.c   ****     ex4month_length[1]--;
  89              		.loc 1 38 0
  90 005a 0599     		ldr	r1, [sp, #20]
  91 005c 0139     		subs	r1, r1, #1
  92 005e 0591     		str	r1, [sp, #20]
  39:exercise4.c   **** 
  40:exercise4.c   ****     //calculate if leap year (to save cycles, we will do this only if the month is February and day
  41:exercise4.c   ****     if (ex4day >= 28 && ex4month == 2)
  93              		.loc 1 41 0
  94 0060 1B2A     		cmp	r2, #27
  95 0062 37DD     		ble	.L5
  96              		.loc 1 41 0 is_stmt 0 discriminator 1
  97 0064 022B     		cmp	r3, #2
  98 0066 35D1     		bne	.L5
  42:exercise4.c   ****     {
  43:exercise4.c   ****         if(ex4year%4 == 0)
  99              		.loc 1 43 0 is_stmt 1
 100 0068 0399     		ldr	r1, [sp, #12]
 101 006a 11F0030F 		tst	r1, #3
 102 006e 24D1     		bne	.L6
  44:exercise4.c   ****         {
  45:exercise4.c   ****             if( ex4year%100 == 0)
 103              		.loc 1 45 0
 104 0070 2E4B     		ldr	r3, .L13+20
 105 0072 83FB0132 		smull	r3, r2, r3, r1
 106 0076 CB17     		asrs	r3, r1, #31
 107 0078 C3EB6213 		rsb	r3, r3, r2, asr #5
 108 007c 6422     		movs	r2, #100
 109 007e 02FB1313 		mls	r3, r2, r3, r1
 110 0082 A3B9     		cbnz	r3, .L7
  46:exercise4.c   ****             {
  47:exercise4.c   ****                 // year is divisible by 400, hence the year is a leap year
  48:exercise4.c   ****                 if ( ex4year%400 == 0)
 111              		.loc 1 48 0
 112 0084 294B     		ldr	r3, .L13+20
 113 0086 83FB0132 		smull	r3, r2, r3, r1
 114 008a CB17     		asrs	r3, r1, #31
 115 008c C3EBE213 		rsb	r3, r3, r2, asr #7
 116 0090 4FF4C872 		mov	r2, #400
 117 0094 02FB1313 		mls	r3, r2, r3, r1
 118 0098 2BB9     		cbnz	r3, .L8
  49:exercise4.c   ****                 {
  50:exercise4.c   ****                     printf("%d is a leap year.\n", ex4year);
 119              		.loc 1 50 0
 120 009a 2548     		ldr	r0, .L13+24
 121 009c FFF7FEFF 		bl	printf
ARM GAS  C:\Users\vedranb\AppData\Local\Temp\ccrxUx3E.s 			page 4


 122              	.LVL4:
  51:exercise4.c   ****                     ex4month_length[1]=29;
 123              		.loc 1 51 0
 124 00a0 1D23     		movs	r3, #29
 125 00a2 0593     		str	r3, [sp, #20]
 126 00a4 0CE0     		b	.L9
 127              	.L8:
  52:exercise4.c   ****                 }
  53:exercise4.c   ****                 else
  54:exercise4.c   ****                 {
  55:exercise4.c   ****                     printf("%d is not a leap year.\n", ex4year);
 128              		.loc 1 55 0
 129 00a6 2348     		ldr	r0, .L13+28
 130 00a8 FFF7FEFF 		bl	printf
 131              	.LVL5:
 132 00ac 08E0     		b	.L9
 133              	.L7:
  56:exercise4.c   ****                 }
  57:exercise4.c   ****             }
  58:exercise4.c   ****             else
  59:exercise4.c   ****             {
  60:exercise4.c   ****                 printf("%d is a leap year.\n", ex4year );
 134              		.loc 1 60 0
 135 00ae 2048     		ldr	r0, .L13+24
 136 00b0 FFF7FEFF 		bl	printf
 137              	.LVL6:
  61:exercise4.c   ****                 ex4month_length[1]=29;
 138              		.loc 1 61 0
 139 00b4 1D23     		movs	r3, #29
 140 00b6 0593     		str	r3, [sp, #20]
 141 00b8 02E0     		b	.L9
 142              	.L6:
  62:exercise4.c   ****             }
  63:exercise4.c   ****         }
  64:exercise4.c   ****         else
  65:exercise4.c   ****         {
  66:exercise4.c   ****             printf("%d is not a leap year.\n", ex4year);
 143              		.loc 1 66 0
 144 00ba 1E48     		ldr	r0, .L13+28
 145 00bc FFF7FEFF 		bl	printf
 146              	.LVL7:
 147              	.L9:
  67:exercise4.c   ****         }
  68:exercise4.c   ****         //second date test, to see if "TODAY" is 29. February on non-leap year
  69:exercise4.c   ****         if(ex4month_length[1] == 28 && ex4day > 28)
 148              		.loc 1 69 0
 149 00c0 059B     		ldr	r3, [sp, #20]
 150 00c2 1C2B     		cmp	r3, #28
 151 00c4 06D1     		bne	.L5
 152              		.loc 1 69 0 is_stmt 0 discriminator 1
 153 00c6 019B     		ldr	r3, [sp, #4]
 154 00c8 1C2B     		cmp	r3, #28
 155 00ca 03DD     		ble	.L5
  70:exercise4.c   ****         {
  71:exercise4.c   ****             printf("Error, wrong initial date, 29th February on non-leap year. Terminating...");
 156              		.loc 1 71 0 is_stmt 1
 157 00cc 1A48     		ldr	r0, .L13+32
ARM GAS  C:\Users\vedranb\AppData\Local\Temp\ccrxUx3E.s 			page 5


 158 00ce FFF7FEFF 		bl	printf
 159              	.LVL8:
  72:exercise4.c   ****             return;
 160              		.loc 1 72 0
 161 00d2 1FE0     		b	.L1
 162              	.L5:
  73:exercise4.c   ****         }
  74:exercise4.c   ****     }
  75:exercise4.c   **** 
  76:exercise4.c   ****     ex4day ++;
 163              		.loc 1 76 0
 164 00d4 019B     		ldr	r3, [sp, #4]
 165 00d6 0133     		adds	r3, r3, #1
 166 00d8 0193     		str	r3, [sp, #4]
  77:exercise4.c   ****     if(ex4day > ex4month_length[ex4month-1])
 167              		.loc 1 77 0
 168 00da 029A     		ldr	r2, [sp, #8]
 169 00dc 10A9     		add	r1, sp, #64
 170 00de 01EB8201 		add	r1, r1, r2, lsl #2
 171 00e2 51F8341C 		ldr	r1, [r1, #-52]
 172 00e6 8B42     		cmp	r3, r1
 173 00e8 03DD     		ble	.L10
  78:exercise4.c   ****     {
  79:exercise4.c   ****         ex4month ++;
 174              		.loc 1 79 0
 175 00ea 0132     		adds	r2, r2, #1
 176 00ec 0292     		str	r2, [sp, #8]
  80:exercise4.c   ****         ex4day = 1;
 177              		.loc 1 80 0
 178 00ee 0123     		movs	r3, #1
 179 00f0 0193     		str	r3, [sp, #4]
 180              	.L10:
  81:exercise4.c   ****     }
  82:exercise4.c   ****     if(ex4month > 12)
 181              		.loc 1 82 0
 182 00f2 029B     		ldr	r3, [sp, #8]
 183 00f4 0C2B     		cmp	r3, #12
 184 00f6 04DD     		ble	.L11
  83:exercise4.c   ****     {
  84:exercise4.c   ****         ex4month = 1;
 185              		.loc 1 84 0
 186 00f8 0123     		movs	r3, #1
 187 00fa 0293     		str	r3, [sp, #8]
  85:exercise4.c   ****         ex4year ++;
 188              		.loc 1 85 0
 189 00fc 039B     		ldr	r3, [sp, #12]
 190 00fe 0133     		adds	r3, r3, #1
 191 0100 0393     		str	r3, [sp, #12]
 192              	.L11:
  86:exercise4.c   ****     }
  87:exercise4.c   **** 
  88:exercise4.c   ****     printf("Tomorrow is: %d.%d.%d\n", ex4day, ex4month, ex4year);
 193              		.loc 1 88 0
 194 0102 0E48     		ldr	r0, .L13+36
 195 0104 0199     		ldr	r1, [sp, #4]
 196 0106 029A     		ldr	r2, [sp, #8]
 197 0108 039B     		ldr	r3, [sp, #12]
ARM GAS  C:\Users\vedranb\AppData\Local\Temp\ccrxUx3E.s 			page 6


 198 010a FFF7FEFF 		bl	printf
 199              	.LVL9:
  89:exercise4.c   **** 
  90:exercise4.c   ****     printf("End of exercise.\n");
 200              		.loc 1 90 0
 201 010e 0C48     		ldr	r0, .L13+40
 202 0110 FFF7FEFF 		bl	puts
 203              	.LVL10:
 204              	.L1:
  91:exercise4.c   ****     return;
  92:exercise4.c   **** 
  93:exercise4.c   **** }
 205              		.loc 1 93 0
 206 0114 11B0     		add	sp, sp, #68
 207              		.cfi_def_cfa_offset 12
 208              		@ sp needed
 209 0116 30BD     		pop	{r4, r5, pc}
 210              	.L14:
 211              		.align	2
 212              	.L13:
 213 0118 00000000 		.word	.LC1
 214 011c 00000000 		.word	.LANCHOR0
 215 0120 10000000 		.word	.LC2
 216 0124 2C000000 		.word	.LC3
 217 0128 38000000 		.word	.LC4
 218 012c 1F85EB51 		.word	1374389535
 219 0130 6C000000 		.word	.LC5
 220 0134 80000000 		.word	.LC6
 221 0138 98000000 		.word	.LC7
 222 013c E4000000 		.word	.LC8
 223 0140 FC000000 		.word	.LC9
 224              		.cfi_endproc
 225              	.LFE63:
 226              		.size	exercise4, .-exercise4
 227              		.section	.rodata
 228              		.align	2
 229              		.set	.LANCHOR0,. + 0
 230              	.LC0:
 231 0000 1F000000 		.word	31
 232 0004 1D000000 		.word	29
 233 0008 1F000000 		.word	31
 234 000c 1E000000 		.word	30
 235 0010 1F000000 		.word	31
 236 0014 1E000000 		.word	30
 237 0018 1F000000 		.word	31
 238 001c 1F000000 		.word	31
 239 0020 1E000000 		.word	30
 240 0024 1F000000 		.word	31
 241 0028 1E000000 		.word	30
 242 002c 1F000000 		.word	31
 243              		.section	.rodata.str1.4,"aMS",%progbits,1
 244              		.align	2
 245              	.LC1:
 246 0000 0A0A4578 		.ascii	"\012\012Exercise 4. \012\000"
 246      65726369 
 246      73652034 
 246      2E200A00 
ARM GAS  C:\Users\vedranb\AppData\Local\Temp\ccrxUx3E.s 			page 7


 247              	.LC2:
 248 0010 456E7465 		.ascii	"Enter today's date (d.m.y):\000"
 248      7220746F 
 248      64617927 
 248      73206461 
 248      74652028 
 249              	.LC3:
 250 002c 25642E25 		.ascii	"%d.%d.%d\000"
 250      642E2564 
 250      00
 251 0035 000000   		.space	3
 252              	.LC4:
 253 0038 44617465 		.ascii	"Date entered in the wrong format. Terminating...\000"
 253      20656E74 
 253      65726564 
 253      20696E20 
 253      74686520 
 254 0069 000000   		.space	3
 255              	.LC5:
 256 006c 25642069 		.ascii	"%d is a leap year.\012\000"
 256      73206120 
 256      6C656170 
 256      20796561 
 256      722E0A00 
 257              	.LC6:
 258 0080 25642069 		.ascii	"%d is not a leap year.\012\000"
 258      73206E6F 
 258      74206120 
 258      6C656170 
 258      20796561 
 259              	.LC7:
 260 0098 4572726F 		.ascii	"Error, wrong initial date, 29th February on non-lea"
 260      722C2077 
 260      726F6E67 
 260      20696E69 
 260      7469616C 
 261 00cb 70207965 		.ascii	"p year. Terminating...\000"
 261      61722E20 
 261      5465726D 
 261      696E6174 
 261      696E672E 
 262 00e2 0000     		.space	2
 263              	.LC8:
 264 00e4 546F6D6F 		.ascii	"Tomorrow is: %d.%d.%d\012\000"
 264      72726F77 
 264      2069733A 
 264      2025642E 
 264      25642E25 
 265 00fb 00       		.space	1
 266              	.LC9:
 267 00fc 456E6420 		.ascii	"End of exercise.\000"
 267      6F662065 
 267      78657263 
 267      6973652E 
 267      00
 268 010d 000000   		.text
 269              	.Letext0:
ARM GAS  C:\Users\vedranb\AppData\Local\Temp\ccrxUx3E.s 			page 8


 270              		.file 2 "c:\\program files (x86)\\cypress\\psoc creator\\4.0\\psoc creator\\import\\gnu\\arm\\4.9.
 271              		.file 3 "c:\\program files (x86)\\cypress\\psoc creator\\4.0\\psoc creator\\import\\gnu\\arm\\4.9.
 272              		.file 4 "Generated_Source\\PSoC5/core_cm3.h"
 273              		.file 5 "<built-in>"
 274              		.file 6 "c:\\program files (x86)\\cypress\\psoc creator\\4.0\\psoc creator\\import\\gnu\\arm\\4.9.