ARM GAS  C:\Users\vedranb\AppData\Local\Temp\ccL31Qsn.s 			page 1


   1              		.syntax unified
   2              		.cpu cortex-m3
   3              		.fpu softvfp
   4              		.eabi_attribute 20, 1
   5              		.eabi_attribute 21, 1
   6              		.eabi_attribute 23, 3
   7              		.eabi_attribute 24, 1
   8              		.eabi_attribute 25, 1
   9              		.eabi_attribute 26, 1
  10              		.eabi_attribute 30, 1
  11              		.eabi_attribute 34, 1
  12              		.eabi_attribute 18, 4
  13              		.thumb
  14              		.file	"exercise3.c"
  15              		.text
  16              	.Ltext0:
  17              		.cfi_sections	.debug_frame
  18              		.global	__aeabi_fcmpge
  19              		.global	__aeabi_fsub
  20              		.global	__aeabi_f2d
  21              		.global	__aeabi_fadd
  22              		.section	.text.exercise3,"ax",%progbits
  23              		.align	2
  24              		.global	exercise3
  25              		.thumb
  26              		.thumb_func
  27              		.type	exercise3, %function
  28              	exercise3:
  29              	.LFB63:
  30              		.file 1 "exercise3.c"
   1:exercise3.c   **** /* ========================================
   2:exercise3.c   ****  *
   3:exercise3.c   ****  * Copyright YOUR COMPANY, THE YEAR
   4:exercise3.c   ****  * All Rights Reserved
   5:exercise3.c   ****  * UNPUBLISHED, LICENSED SOFTWARE.
   6:exercise3.c   ****  *
   7:exercise3.c   ****  * CONFIDENTIAL AND PROPRIETARY INFORMATION
   8:exercise3.c   ****  * WHICH IS THE PROPERTY OF your company.
   9:exercise3.c   ****  *
  10:exercise3.c   ****  * ========================================
  11:exercise3.c   **** */
  12:exercise3.c   **** 
  13:exercise3.c   **** //Exercise 3
  14:exercise3.c   **** #include "project.h"
  15:exercise3.c   **** #include <stdio.h>
  16:exercise3.c   **** 
  17:exercise3.c   **** void exercise3(void)
  18:exercise3.c   **** {
  31              		.loc 1 18 0
  32              		.cfi_startproc
  33              		@ args = 0, pretend = 0, frame = 8
  34              		@ frame_needed = 0, uses_anonymous_args = 0
  35 0000 10B5     		push	{r4, lr}
  36              		.cfi_def_cfa_offset 8
  37              		.cfi_offset 4, -8
  38              		.cfi_offset 14, -4
  39 0002 82B0     		sub	sp, sp, #8
ARM GAS  C:\Users\vedranb\AppData\Local\Temp\ccL31Qsn.s 			page 2


  40              		.cfi_def_cfa_offset 16
  19:exercise3.c   ****     printf("\n\nExercise 3. \n\n");
  41              		.loc 1 19 0
  42 0004 1F48     		ldr	r0, .L8
  43 0006 FFF7FEFF 		bl	puts
  44              	.LVL0:
  20:exercise3.c   **** 
  21:exercise3.c   ****     float ex3ticketPrice = 0;
  45              		.loc 1 21 0
  46 000a 0023     		movs	r3, #0
  47 000c 0193     		str	r3, [sp, #4]	@ float
  22:exercise3.c   ****     float ex3myMoney = 0;
  48              		.loc 1 22 0
  49 000e 0093     		str	r3, [sp]	@ float
  23:exercise3.c   **** 
  24:exercise3.c   ****     printf("Enter the price of the bus ticket?\n");
  50              		.loc 1 24 0
  51 0010 1D48     		ldr	r0, .L8+4
  52 0012 FFF7FEFF 		bl	puts
  53              	.LVL1:
  25:exercise3.c   ****     scanf("%f", &ex3ticketPrice);
  54              		.loc 1 25 0
  55 0016 1D4C     		ldr	r4, .L8+8
  56 0018 2046     		mov	r0, r4
  57 001a 01A9     		add	r1, sp, #4
  58 001c FFF7FEFF 		bl	scanf
  59              	.LVL2:
  26:exercise3.c   ****     printf("How much money do you have?\n");
  60              		.loc 1 26 0
  61 0020 1B48     		ldr	r0, .L8+12
  62 0022 FFF7FEFF 		bl	puts
  63              	.LVL3:
  27:exercise3.c   ****     scanf("%f", &ex3myMoney);
  64              		.loc 1 27 0
  65 0026 2046     		mov	r0, r4
  66 0028 6946     		mov	r1, sp
  67 002a FFF7FEFF 		bl	scanf
  68              	.LVL4:
  28:exercise3.c   **** 
  29:exercise3.c   ****     if (ex3myMoney >= ex3ticketPrice)
  69              		.loc 1 29 0
  70 002e 0098     		ldr	r0, [sp]	@ float
  71 0030 0199     		ldr	r1, [sp, #4]	@ float
  72 0032 FFF7FEFF 		bl	__aeabi_fcmpge
  73              	.LVL5:
  74 0036 70B1     		cbz	r0, .L6
  30:exercise3.c   ****     {
  31:exercise3.c   ****         printf("You have enough money for a bus ticket!\n");
  75              		.loc 1 31 0
  76 0038 1648     		ldr	r0, .L8+16
  77 003a FFF7FEFF 		bl	puts
  78              	.LVL6:
  32:exercise3.c   ****         printf("You have %.2f euros left!\n", ex3myMoney - ex3ticketPrice);
  79              		.loc 1 32 0
  80 003e 0098     		ldr	r0, [sp]	@ float
  81 0040 0199     		ldr	r1, [sp, #4]	@ float
  82 0042 FFF7FEFF 		bl	__aeabi_fsub
ARM GAS  C:\Users\vedranb\AppData\Local\Temp\ccL31Qsn.s 			page 3


  83              	.LVL7:
  84 0046 FFF7FEFF 		bl	__aeabi_f2d
  85              	.LVL8:
  86 004a 0246     		mov	r2, r0
  87 004c 0B46     		mov	r3, r1
  88 004e 1248     		ldr	r0, .L8+20
  89 0050 FFF7FEFF 		bl	printf
  90              	.LVL9:
  91 0054 10E0     		b	.L4
  92              	.L6:
  33:exercise3.c   ****     }
  34:exercise3.c   ****     else
  35:exercise3.c   ****     {
  36:exercise3.c   ****         printf("You don't have enough money for a bus ticket!\n");
  93              		.loc 1 36 0
  94 0056 1148     		ldr	r0, .L8+24
  95 0058 FFF7FEFF 		bl	puts
  96              	.LVL10:
  37:exercise3.c   ****         printf("You are lacking %.2f euros :(\n", 0 - ex3myMoney + ex3ticketPrice);
  97              		.loc 1 37 0
  98 005c 0020     		movs	r0, #0
  99 005e 0099     		ldr	r1, [sp]	@ float
 100 0060 FFF7FEFF 		bl	__aeabi_fsub
 101              	.LVL11:
 102 0064 0199     		ldr	r1, [sp, #4]	@ float
 103 0066 FFF7FEFF 		bl	__aeabi_fadd
 104              	.LVL12:
 105 006a FFF7FEFF 		bl	__aeabi_f2d
 106              	.LVL13:
 107 006e 0246     		mov	r2, r0
 108 0070 0B46     		mov	r3, r1
 109 0072 0B48     		ldr	r0, .L8+28
 110 0074 FFF7FEFF 		bl	printf
 111              	.LVL14:
 112              	.L4:
  38:exercise3.c   ****     }
  39:exercise3.c   **** 
  40:exercise3.c   ****     printf("End of exercise\n\n");
 113              		.loc 1 40 0
 114 0078 0A48     		ldr	r0, .L8+32
 115 007a FFF7FEFF 		bl	puts
 116              	.LVL15:
  41:exercise3.c   ****     return;
  42:exercise3.c   **** 
  43:exercise3.c   **** }
 117              		.loc 1 43 0
 118 007e 02B0     		add	sp, sp, #8
 119              		.cfi_def_cfa_offset 8
 120              		@ sp needed
 121 0080 10BD     		pop	{r4, pc}
 122              	.L9:
 123 0082 00BF     		.align	2
 124              	.L8:
 125 0084 00000000 		.word	.LC0
 126 0088 10000000 		.word	.LC1
 127 008c 34000000 		.word	.LC2
 128 0090 38000000 		.word	.LC3
ARM GAS  C:\Users\vedranb\AppData\Local\Temp\ccL31Qsn.s 			page 4


 129 0094 54000000 		.word	.LC4
 130 0098 7C000000 		.word	.LC5
 131 009c 98000000 		.word	.LC6
 132 00a0 C8000000 		.word	.LC7
 133 00a4 E8000000 		.word	.LC8
 134              		.cfi_endproc
 135              	.LFE63:
 136              		.size	exercise3, .-exercise3
 137              		.section	.rodata.str1.4,"aMS",%progbits,1
 138              		.align	2
 139              	.LC0:
 140 0000 0A0A4578 		.ascii	"\012\012Exercise 3. \012\000"
 140      65726369 
 140      73652033 
 140      2E200A00 
 141              	.LC1:
 142 0010 456E7465 		.ascii	"Enter the price of the bus ticket?\000"
 142      72207468 
 142      65207072 
 142      69636520 
 142      6F662074 
 143 0033 00       		.space	1
 144              	.LC2:
 145 0034 256600   		.ascii	"%f\000"
 146 0037 00       		.space	1
 147              	.LC3:
 148 0038 486F7720 		.ascii	"How much money do you have?\000"
 148      6D756368 
 148      206D6F6E 
 148      65792064 
 148      6F20796F 
 149              	.LC4:
 150 0054 596F7520 		.ascii	"You have enough money for a bus ticket!\000"
 150      68617665 
 150      20656E6F 
 150      75676820 
 150      6D6F6E65 
 151              	.LC5:
 152 007c 596F7520 		.ascii	"You have %.2f euros left!\012\000"
 152      68617665 
 152      20252E32 
 152      66206575 
 152      726F7320 
 153 0097 00       		.space	1
 154              	.LC6:
 155 0098 596F7520 		.ascii	"You don't have enough money for a bus ticket!\000"
 155      646F6E27 
 155      74206861 
 155      76652065 
 155      6E6F7567 
 156 00c6 0000     		.space	2
 157              	.LC7:
 158 00c8 596F7520 		.ascii	"You are lacking %.2f euros :(\012\000"
 158      61726520 
 158      6C61636B 
 158      696E6720 
 158      252E3266 
ARM GAS  C:\Users\vedranb\AppData\Local\Temp\ccL31Qsn.s 			page 5


 159 00e7 00       		.space	1
 160              	.LC8:
 161 00e8 456E6420 		.ascii	"End of exercise\012\000"
 161      6F662065 
 161      78657263 
 161      6973650A 
 161      00
 162 00f9 000000   		.text
 163              	.Letext0:
 164              		.file 2 "c:\\program files (x86)\\cypress\\psoc creator\\4.0\\psoc creator\\import\\gnu\\arm\\4.9.
 165              		.file 3 "c:\\program files (x86)\\cypress\\psoc creator\\4.0\\psoc creator\\import\\gnu\\arm\\4.9.
 166              		.file 4 "Generated_Source\\PSoC5/core_cm3.h"
 167              		.file 5 "<built-in>"
 168              		.file 6 "c:\\program files (x86)\\cypress\\psoc creator\\4.0\\psoc creator\\import\\gnu\\arm\\4.9.