ARM GAS  C:\Users\vedranb\AppData\Local\Temp\ccDBfSI1.s 			page 1


   1              		.syntax unified
   2              		.cpu cortex-m3
   3              		.fpu softvfp
   4              		.eabi_attribute 20, 1
   5              		.eabi_attribute 21, 1
   6              		.eabi_attribute 23, 3
   7              		.eabi_attribute 24, 1
   8              		.eabi_attribute 25, 1
   9              		.eabi_attribute 26, 1
  10              		.eabi_attribute 30, 1
  11              		.eabi_attribute 34, 1
  12              		.eabi_attribute 18, 4
  13              		.thumb
  14              		.file	"exercise5.c"
  15              		.text
  16              	.Ltext0:
  17              		.cfi_sections	.debug_frame
  18              		.global	__aeabi_fmul
  19              		.global	__aeabi_fdiv
  20              		.global	__aeabi_f2d
  21              		.global	__aeabi_fcmplt
  22              		.global	__aeabi_fcmpge
  23              		.global	__aeabi_fcmple
  24              		.section	.text.exercise5,"ax",%progbits
  25              		.align	2
  26              		.global	exercise5
  27              		.thumb
  28              		.thumb_func
  29              		.type	exercise5, %function
  30              	exercise5:
  31              	.LFB63:
  32              		.file 1 "exercise5.c"
   1:exercise5.c   **** /* ========================================
   2:exercise5.c   ****  *
   3:exercise5.c   ****  * Copyright YOUR COMPANY, THE YEAR
   4:exercise5.c   ****  * All Rights Reserved
   5:exercise5.c   ****  * UNPUBLISHED, LICENSED SOFTWARE.
   6:exercise5.c   ****  *
   7:exercise5.c   ****  * CONFIDENTIAL AND PROPRIETARY INFORMATION
   8:exercise5.c   ****  * WHICH IS THE PROPERTY OF your company.
   9:exercise5.c   ****  *
  10:exercise5.c   ****  * ========================================
  11:exercise5.c   **** */
  12:exercise5.c   **** #include "project.h"
  13:exercise5.c   **** #include <stdio.h>
  14:exercise5.c   **** 
  15:exercise5.c   **** void exercise5(void)
  16:exercise5.c   **** {
  33              		.loc 1 16 0
  34              		.cfi_startproc
  35              		@ args = 0, pretend = 0, frame = 8
  36              		@ frame_needed = 0, uses_anonymous_args = 0
  37 0000 10B5     		push	{r4, lr}
  38              		.cfi_def_cfa_offset 8
  39              		.cfi_offset 4, -8
  40              		.cfi_offset 14, -4
  41 0002 82B0     		sub	sp, sp, #8
ARM GAS  C:\Users\vedranb\AppData\Local\Temp\ccDBfSI1.s 			page 2


  42              		.cfi_def_cfa_offset 16
  17:exercise5.c   ****      //Exercise 5
  18:exercise5.c   ****     printf("\n\nExercise 5. \n\n");
  43              		.loc 1 18 0
  44 0004 2348     		ldr	r0, .L13
  45 0006 FFF7FEFF 		bl	puts
  46              	.LVL0:
  19:exercise5.c   **** 
  20:exercise5.c   ****     //declarations
  21:exercise5.c   ****     float ex5masskg = 0;
  47              		.loc 1 21 0
  48 000a 0023     		movs	r3, #0
  49 000c 0193     		str	r3, [sp, #4]	@ float
  22:exercise5.c   ****     float ex5heightcm = 0;
  50              		.loc 1 22 0
  51 000e 0093     		str	r3, [sp]	@ float
  52              	.LVL1:
  23:exercise5.c   ****     float ex5bmi = 0;
  24:exercise5.c   **** 
  25:exercise5.c   ****     printf("Please insert your weight in kilograms (dont't lie (too much)).\n");
  53              		.loc 1 25 0
  54 0010 2148     		ldr	r0, .L13+4
  55 0012 FFF7FEFF 		bl	puts
  56              	.LVL2:
  26:exercise5.c   ****     scanf("%f", &ex5masskg);
  57              		.loc 1 26 0
  58 0016 214C     		ldr	r4, .L13+8
  59 0018 2046     		mov	r0, r4
  60 001a 01A9     		add	r1, sp, #4
  61 001c FFF7FEFF 		bl	scanf
  62              	.LVL3:
  27:exercise5.c   ****     printf("Please insert your height in centimeters: (dont't stretch it too much).\n");
  63              		.loc 1 27 0
  64 0020 1F48     		ldr	r0, .L13+12
  65 0022 FFF7FEFF 		bl	puts
  66              	.LVL4:
  28:exercise5.c   ****     scanf("%f", &ex5heightcm);
  67              		.loc 1 28 0
  68 0026 2046     		mov	r0, r4
  69 0028 6946     		mov	r1, sp
  70 002a FFF7FEFF 		bl	scanf
  71              	.LVL5:
  29:exercise5.c   **** 
  30:exercise5.c   ****     //because why convert cm to m
  31:exercise5.c   ****     ex5bmi = ex5masskg / ((ex5heightcm * ex5heightcm) / 10000);
  72              		.loc 1 31 0
  73 002e 019C     		ldr	r4, [sp, #4]	@ float
  74 0030 0098     		ldr	r0, [sp]	@ float
  75 0032 0146     		mov	r1, r0
  76 0034 FFF7FEFF 		bl	__aeabi_fmul
  77              	.LVL6:
  78 0038 1A49     		ldr	r1, .L13+16
  79 003a FFF7FEFF 		bl	__aeabi_fdiv
  80              	.LVL7:
  81 003e 0146     		mov	r1, r0
  82 0040 2046     		mov	r0, r4
  83 0042 FFF7FEFF 		bl	__aeabi_fdiv
ARM GAS  C:\Users\vedranb\AppData\Local\Temp\ccDBfSI1.s 			page 3


  84              	.LVL8:
  85 0046 0446     		mov	r4, r0
  86              	.LVL9:
  32:exercise5.c   **** 
  33:exercise5.c   ****     printf("Your BMI is %.2f.\n", ex5bmi);
  87              		.loc 1 33 0
  88 0048 FFF7FEFF 		bl	__aeabi_f2d
  89              	.LVL10:
  90 004c 0246     		mov	r2, r0
  91 004e 0B46     		mov	r3, r1
  92 0050 1548     		ldr	r0, .L13+20
  93 0052 FFF7FEFF 		bl	printf
  94              	.LVL11:
  34:exercise5.c   **** 
  35:exercise5.c   ****     printf("According to BMI you have ");
  95              		.loc 1 35 0
  96 0056 1548     		ldr	r0, .L13+24
  97 0058 FFF7FEFF 		bl	printf
  98              	.LVL12:
  36:exercise5.c   ****     if(ex5bmi < 18.5)
  99              		.loc 1 36 0
 100 005c 2046     		mov	r0, r4
 101 005e 1449     		ldr	r1, .L13+28
 102 0060 FFF7FEFF 		bl	__aeabi_fcmplt
 103              	.LVL13:
 104 0064 18B1     		cbz	r0, .L11
  37:exercise5.c   ****     {
  38:exercise5.c   ****         printf("underweight.\n");
 105              		.loc 1 38 0
 106 0066 1348     		ldr	r0, .L13+32
 107 0068 FFF7FEFF 		bl	puts
 108              	.LVL14:
 109 006c 10E0     		b	.L1
 110              	.L11:
  39:exercise5.c   ****     }
  40:exercise5.c   ****     else if(ex5bmi >= 18.5 && ex5bmi <= 22.5)
 111              		.loc 1 40 0
 112 006e 2046     		mov	r0, r4
 113 0070 0F49     		ldr	r1, .L13+28
 114 0072 FFF7FEFF 		bl	__aeabi_fcmpge
 115              	.LVL15:
 116 0076 40B1     		cbz	r0, .L5
 117              		.loc 1 40 0 is_stmt 0 discriminator 1
 118 0078 2046     		mov	r0, r4
 119 007a 0F49     		ldr	r1, .L13+36
 120 007c FFF7FEFF 		bl	__aeabi_fcmple
 121              	.LVL16:
 122 0080 18B1     		cbz	r0, .L5
  41:exercise5.c   ****     {
  42:exercise5.c   ****         printf("normal weight.\n");
 123              		.loc 1 42 0 is_stmt 1
 124 0082 0E48     		ldr	r0, .L13+40
 125 0084 FFF7FEFF 		bl	puts
 126              	.LVL17:
 127 0088 02E0     		b	.L1
 128              	.L5:
  43:exercise5.c   ****     }
ARM GAS  C:\Users\vedranb\AppData\Local\Temp\ccDBfSI1.s 			page 4


  44:exercise5.c   ****     else
  45:exercise5.c   ****     {
  46:exercise5.c   ****         printf("overweight.\n");
 129              		.loc 1 46 0
 130 008a 0D48     		ldr	r0, .L13+44
 131 008c FFF7FEFF 		bl	puts
 132              	.LVL18:
 133              	.L1:
  47:exercise5.c   ****     }
  48:exercise5.c   **** 
  49:exercise5.c   **** 
  50:exercise5.c   **** }
 134              		.loc 1 50 0
 135 0090 02B0     		add	sp, sp, #8
 136              		.cfi_def_cfa_offset 8
 137              		@ sp needed
 138 0092 10BD     		pop	{r4, pc}
 139              	.LVL19:
 140              	.L14:
 141              		.align	2
 142              	.L13:
 143 0094 00000000 		.word	.LC0
 144 0098 10000000 		.word	.LC1
 145 009c 50000000 		.word	.LC2
 146 00a0 54000000 		.word	.LC3
 147 00a4 00401C46 		.word	1176256512
 148 00a8 9C000000 		.word	.LC4
 149 00ac B0000000 		.word	.LC5
 150 00b0 00009441 		.word	1100218368
 151 00b4 CC000000 		.word	.LC6
 152 00b8 0000B441 		.word	1102315520
 153 00bc DC000000 		.word	.LC7
 154 00c0 EC000000 		.word	.LC8
 155              		.cfi_endproc
 156              	.LFE63:
 157              		.size	exercise5, .-exercise5
 158              		.section	.rodata.str1.4,"aMS",%progbits,1
 159              		.align	2
 160              	.LC0:
 161 0000 0A0A4578 		.ascii	"\012\012Exercise 5. \012\000"
 161      65726369 
 161      73652035 
 161      2E200A00 
 162              	.LC1:
 163 0010 506C6561 		.ascii	"Please insert your weight in kilograms (dont't lie "
 163      73652069 
 163      6E736572 
 163      7420796F 
 163      75722077 
 164 0043 28746F6F 		.ascii	"(too much)).\000"
 164      206D7563 
 164      6829292E 
 164      00
 165              	.LC2:
 166 0050 256600   		.ascii	"%f\000"
 167 0053 00       		.space	1
 168              	.LC3:
ARM GAS  C:\Users\vedranb\AppData\Local\Temp\ccDBfSI1.s 			page 5


 169 0054 506C6561 		.ascii	"Please insert your height in centimeters: (dont't s"
 169      73652069 
 169      6E736572 
 169      7420796F 
 169      75722068 
 170 0087 74726574 		.ascii	"tretch it too much).\000"
 170      63682069 
 170      7420746F 
 170      6F206D75 
 170      6368292E 
 171              	.LC4:
 172 009c 596F7572 		.ascii	"Your BMI is %.2f.\012\000"
 172      20424D49 
 172      20697320 
 172      252E3266 
 172      2E0A00
 173 00af 00       		.space	1
 174              	.LC5:
 175 00b0 4163636F 		.ascii	"According to BMI you have \000"
 175      7264696E 
 175      6720746F 
 175      20424D49 
 175      20796F75 
 176 00cb 00       		.space	1
 177              	.LC6:
 178 00cc 756E6465 		.ascii	"underweight.\000"
 178      72776569 
 178      6768742E 
 178      00
 179 00d9 000000   		.space	3
 180              	.LC7:
 181 00dc 6E6F726D 		.ascii	"normal weight.\000"
 181      616C2077 
 181      65696768 
 181      742E00
 182 00eb 00       		.space	1
 183              	.LC8:
 184 00ec 6F766572 		.ascii	"overweight.\000"
 184      77656967 
 184      68742E00 
 185              		.text
 186              	.Letext0:
 187              		.file 2 "c:\\program files (x86)\\cypress\\psoc creator\\4.0\\psoc creator\\import\\gnu\\arm\\4.9.
 188              		.file 3 "c:\\program files (x86)\\cypress\\psoc creator\\4.0\\psoc creator\\import\\gnu\\arm\\4.9.
 189              		.file 4 "Generated_Source\\PSoC5/core_cm3.h"
 190              		.file 5 "<built-in>"
 191              		.file 6 "c:\\program files (x86)\\cypress\\psoc creator\\4.0\\psoc creator\\import\\gnu\\arm\\4.9.