ARM GAS  C:\Users\vedranb\AppData\Local\Temp\ccEhxnMZ.s 			page 1


   1              		.syntax unified
   2              		.cpu cortex-m3
   3              		.fpu softvfp
   4              		.eabi_attribute 20, 1
   5              		.eabi_attribute 21, 1
   6              		.eabi_attribute 23, 3
   7              		.eabi_attribute 24, 1
   8              		.eabi_attribute 25, 1
   9              		.eabi_attribute 26, 1
  10              		.eabi_attribute 30, 1
  11              		.eabi_attribute 34, 1
  12              		.eabi_attribute 18, 4
  13              		.thumb
  14              		.file	"exercise9.c"
  15              		.text
  16              	.Ltext0:
  17              		.cfi_sections	.debug_frame
  18              		.global	__aeabi_fcmplt
  19              		.global	__aeabi_f2d
  20              		.section	.text.exercise9,"ax",%progbits
  21              		.align	2
  22              		.global	exercise9
  23              		.thumb
  24              		.thumb_func
  25              		.type	exercise9, %function
  26              	exercise9:
  27              	.LFB63:
  28              		.file 1 "exercise9.c"
   1:exercise9.c   **** /* ========================================
   2:exercise9.c   ****  *
   3:exercise9.c   ****  * Copyright YOUR COMPANY, THE YEAR
   4:exercise9.c   ****  * All Rights Reserved
   5:exercise9.c   ****  * UNPUBLISHED, LICENSED SOFTWARE.
   6:exercise9.c   ****  *
   7:exercise9.c   ****  * CONFIDENTIAL AND PROPRIETARY INFORMATION
   8:exercise9.c   ****  * WHICH IS THE PROPERTY OF your company.
   9:exercise9.c   ****  *
  10:exercise9.c   ****  * ========================================
  11:exercise9.c   **** */
  12:exercise9.c   **** #include "project.h"
  13:exercise9.c   **** #include <stdio.h>
  14:exercise9.c   **** #include "common_functions.h"
  15:exercise9.c   **** 
  16:exercise9.c   **** #define ARRSIZE 5
  17:exercise9.c   **** 
  18:exercise9.c   **** void exercise9(void)
  19:exercise9.c   **** {
  29              		.loc 1 19 0
  30              		.cfi_startproc
  31              		@ args = 0, pretend = 0, frame = 24
  32              		@ frame_needed = 0, uses_anonymous_args = 0
  33 0000 70B5     		push	{r4, r5, r6, lr}
  34              		.cfi_def_cfa_offset 16
  35              		.cfi_offset 4, -16
  36              		.cfi_offset 5, -12
  37              		.cfi_offset 6, -8
  38              		.cfi_offset 14, -4
ARM GAS  C:\Users\vedranb\AppData\Local\Temp\ccEhxnMZ.s 			page 2


  39 0002 86B0     		sub	sp, sp, #24
  40              		.cfi_def_cfa_offset 40
  20:exercise9.c   **** 
  21:exercise9.c   ****      //Exercise 9
  22:exercise9.c   ****     printf("\n\nExercise 9. \n\n");
  41              		.loc 1 22 0
  42 0004 1C48     		ldr	r0, .L9
  43 0006 FFF7FEFF 		bl	puts
  44              	.LVL0:
  23:exercise9.c   **** 
  24:exercise9.c   ****     // use the constant to initialize the array size
  25:exercise9.c   ****     float arr[ARRSIZE] = {0};
  45              		.loc 1 25 0
  46 000a 0024     		movs	r4, #0
  47 000c 0194     		str	r4, [sp, #4]
  48 000e 0294     		str	r4, [sp, #8]
  49 0010 0394     		str	r4, [sp, #12]
  50 0012 0494     		str	r4, [sp, #16]
  51 0014 0594     		str	r4, [sp, #20]
  52              	.LVL1:
  26:exercise9.c   ****     float minimum = 0;
  27:exercise9.c   ****     int i = 0;
  28:exercise9.c   **** 
  29:exercise9.c   ****     //loop through the array elements
  30:exercise9.c   ****     //use the constant to limit the loop cycle
  31:exercise9.c   ****     printf("Enter 5 floating point numbers. \n");
  53              		.loc 1 31 0
  54 0016 1948     		ldr	r0, .L9+4
  55 0018 FFF7FEFF 		bl	puts
  56              	.LVL2:
  32:exercise9.c   ****     for(i = 0; i < ARRSIZE; i++){
  57              		.loc 1 32 0
  58 001c 0CE0     		b	.L2
  59              	.LVL3:
  60              	.L3:
  33:exercise9.c   ****         //assign the values
  34:exercise9.c   **** 
  35:exercise9.c   ****         printf("Enter number %d: ", i+1);
  61              		.loc 1 35 0 discriminator 3
  62 001e 651C     		adds	r5, r4, #1
  63 0020 1748     		ldr	r0, .L9+8
  64 0022 2946     		mov	r1, r5
  65 0024 FFF7FEFF 		bl	printf
  66              	.LVL4:
  36:exercise9.c   ****         arr[i] = readFloat();
  67              		.loc 1 36 0 discriminator 3
  68 0028 FFF7FEFF 		bl	readFloat
  69              	.LVL5:
  70 002c 06AB     		add	r3, sp, #24
  71 002e 03EB8404 		add	r4, r3, r4, lsl #2
  72              	.LVL6:
  73 0032 44F8140C 		str	r0, [r4, #-20]	@ float
  74              	.LVL7:
  32:exercise9.c   ****     for(i = 0; i < ARRSIZE; i++){
  75              		.loc 1 32 0 discriminator 3
  76 0036 2C46     		mov	r4, r5
  77              	.LVL8:
ARM GAS  C:\Users\vedranb\AppData\Local\Temp\ccEhxnMZ.s 			page 3


  78              	.L2:
  32:exercise9.c   ****     for(i = 0; i < ARRSIZE; i++){
  79              		.loc 1 32 0 is_stmt 0 discriminator 1
  80 0038 042C     		cmp	r4, #4
  81 003a F0DD     		ble	.L3
  37:exercise9.c   ****     }
  38:exercise9.c   **** 
  39:exercise9.c   ****     minimum = arr[0];
  82              		.loc 1 39 0 is_stmt 1
  83 003c 019E     		ldr	r6, [sp, #4]	@ float
  84              	.LVL9:
  40:exercise9.c   ****     for(i = 1; i < ARRSIZE; i++){
  85              		.loc 1 40 0
  86 003e 0124     		movs	r4, #1
  87 0040 0BE0     		b	.L4
  88              	.LVL10:
  89              	.L6:
  41:exercise9.c   ****         if(arr[i] < minimum) minimum = arr[i];
  90              		.loc 1 41 0
  91 0042 06AB     		add	r3, sp, #24
  92 0044 03EB8403 		add	r3, r3, r4, lsl #2
  93 0048 53F8145C 		ldr	r5, [r3, #-20]	@ float
  94 004c 2846     		mov	r0, r5
  95 004e 3146     		mov	r1, r6
  96 0050 FFF7FEFF 		bl	__aeabi_fcmplt
  97              	.LVL11:
  98 0054 00B1     		cbz	r0, .L5
  99 0056 2E46     		mov	r6, r5
 100              	.LVL12:
 101              	.L5:
  40:exercise9.c   ****     for(i = 1; i < ARRSIZE; i++){
 102              		.loc 1 40 0 discriminator 2
 103 0058 0134     		adds	r4, r4, #1
 104              	.LVL13:
 105              	.L4:
  40:exercise9.c   ****     for(i = 1; i < ARRSIZE; i++){
 106              		.loc 1 40 0 is_stmt 0 discriminator 1
 107 005a 042C     		cmp	r4, #4
 108 005c F1DD     		ble	.L6
  42:exercise9.c   ****     }
  43:exercise9.c   ****     //using the constant again
  44:exercise9.c   ****     printf("The smallest number in the array is %.3f\n", minimum);
 109              		.loc 1 44 0 is_stmt 1
 110 005e 3046     		mov	r0, r6
 111 0060 FFF7FEFF 		bl	__aeabi_f2d
 112              	.LVL14:
 113 0064 0246     		mov	r2, r0
 114 0066 0B46     		mov	r3, r1
 115 0068 0648     		ldr	r0, .L9+12
 116 006a FFF7FEFF 		bl	printf
 117              	.LVL15:
  45:exercise9.c   **** 
  46:exercise9.c   ****     printf("\nEnd of Exercise 9. \n\n");
 118              		.loc 1 46 0
 119 006e 0648     		ldr	r0, .L9+16
 120 0070 FFF7FEFF 		bl	puts
 121              	.LVL16:
ARM GAS  C:\Users\vedranb\AppData\Local\Temp\ccEhxnMZ.s 			page 4


  47:exercise9.c   ****     return;
  48:exercise9.c   **** }
 122              		.loc 1 48 0
 123 0074 06B0     		add	sp, sp, #24
 124              		.cfi_def_cfa_offset 16
 125              		@ sp needed
 126 0076 70BD     		pop	{r4, r5, r6, pc}
 127              	.LVL17:
 128              	.L10:
 129              		.align	2
 130              	.L9:
 131 0078 00000000 		.word	.LC0
 132 007c 10000000 		.word	.LC1
 133 0080 34000000 		.word	.LC2
 134 0084 48000000 		.word	.LC3
 135 0088 74000000 		.word	.LC4
 136              		.cfi_endproc
 137              	.LFE63:
 138              		.size	exercise9, .-exercise9
 139              		.section	.rodata.str1.4,"aMS",%progbits,1
 140              		.align	2
 141              	.LC0:
 142 0000 0A0A4578 		.ascii	"\012\012Exercise 9. \012\000"
 142      65726369 
 142      73652039 
 142      2E200A00 
 143              	.LC1:
 144 0010 456E7465 		.ascii	"Enter 5 floating point numbers. \000"
 144      72203520 
 144      666C6F61 
 144      74696E67 
 144      20706F69 
 145 0031 000000   		.space	3
 146              	.LC2:
 147 0034 456E7465 		.ascii	"Enter number %d: \000"
 147      72206E75 
 147      6D626572 
 147      2025643A 
 147      2000
 148 0046 0000     		.space	2
 149              	.LC3:
 150 0048 54686520 		.ascii	"The smallest number in the array is %.3f\012\000"
 150      736D616C 
 150      6C657374 
 150      206E756D 
 150      62657220 
 151 0072 0000     		.space	2
 152              	.LC4:
 153 0074 0A456E64 		.ascii	"\012End of Exercise 9. \012\000"
 153      206F6620 
 153      45786572 
 153      63697365 
 153      20392E20 
 154 008a 0000     		.text
 155              	.Letext0:
 156              		.file 2 "c:\\program files (x86)\\cypress\\psoc creator\\4.0\\psoc creator\\import\\gnu\\arm\\4.9.
 157              		.file 3 "c:\\program files (x86)\\cypress\\psoc creator\\4.0\\psoc creator\\import\\gnu\\arm\\4.9.
ARM GAS  C:\Users\vedranb\AppData\Local\Temp\ccEhxnMZ.s 			page 5


 158              		.file 4 "Generated_Source\\PSoC5/core_cm3.h"
 159              		.file 5 "<built-in>"
 160              		.file 6 "c:\\program files (x86)\\cypress\\psoc creator\\4.0\\psoc creator\\import\\gnu\\arm\\4.9.
 161              		.file 7 "common_functions.h"