ARM GAS  C:\Users\vedranb\AppData\Local\Temp\ccVzZQhr.s 			page 1


   1              		.syntax unified
   2              		.cpu cortex-m3
   3              		.fpu softvfp
   4              		.eabi_attribute 20, 1
   5              		.eabi_attribute 21, 1
   6              		.eabi_attribute 23, 3
   7              		.eabi_attribute 24, 1
   8              		.eabi_attribute 25, 1
   9              		.eabi_attribute 26, 1
  10              		.eabi_attribute 30, 1
  11              		.eabi_attribute 34, 1
  12              		.eabi_attribute 18, 4
  13              		.thumb
  14              		.file	"exercise12.c"
  15              		.text
  16              	.Ltext0:
  17              		.cfi_sections	.debug_frame
  18              		.global	__aeabi_i2f
  19              		.global	__aeabi_fdiv
  20              		.section	.text.calcRate,"ax",%progbits
  21              		.align	2
  22              		.global	calcRate
  23              		.thumb
  24              		.thumb_func
  25              		.type	calcRate, %function
  26              	calcRate:
  27              	.LFB63:
  28              		.file 1 "exercise12.c"
   1:exercise12.c  **** /* ========================================
   2:exercise12.c  ****  *
   3:exercise12.c  ****  * Copyright YOUR COMPANY, THE YEAR
   4:exercise12.c  ****  * All Rights Reserved
   5:exercise12.c  ****  * UNPUBLISHED, LICENSED SOFTWARE.
   6:exercise12.c  ****  *
   7:exercise12.c  ****  * CONFIDENTIAL AND PROPRIETARY INFORMATION
   8:exercise12.c  ****  * WHICH IS THE PROPERTY OF your company.
   9:exercise12.c  ****  *
  10:exercise12.c  ****  * ========================================
  11:exercise12.c  **** */
  12:exercise12.c  **** #include "project.h"
  13:exercise12.c  **** #include <stdio.h>
  14:exercise12.c  **** #include "common_functions.h"
  15:exercise12.c  **** 
  16:exercise12.c  **** float calcRate(int e, int d){
  29              		.loc 1 16 0
  30              		.cfi_startproc
  31              		@ args = 0, pretend = 0, frame = 0
  32              		@ frame_needed = 0, uses_anonymous_args = 0
  33              	.LVL0:
  34 0000 38B5     		push	{r3, r4, r5, lr}
  35              		.cfi_def_cfa_offset 16
  36              		.cfi_offset 3, -16
  37              		.cfi_offset 4, -12
  38              		.cfi_offset 5, -8
  39              		.cfi_offset 14, -4
  40 0002 0546     		mov	r5, r0
  17:exercise12.c  ****     return (float)d / e;
ARM GAS  C:\Users\vedranb\AppData\Local\Temp\ccVzZQhr.s 			page 2


  41              		.loc 1 17 0
  42 0004 0846     		mov	r0, r1
  43              	.LVL1:
  44 0006 FFF7FEFF 		bl	__aeabi_i2f
  45              	.LVL2:
  46 000a 0446     		mov	r4, r0
  47 000c 2846     		mov	r0, r5
  48 000e FFF7FEFF 		bl	__aeabi_i2f
  49              	.LVL3:
  50 0012 0146     		mov	r1, r0
  51 0014 2046     		mov	r0, r4
  52 0016 FFF7FEFF 		bl	__aeabi_fdiv
  53              	.LVL4:
  18:exercise12.c  **** }
  54              		.loc 1 18 0
  55 001a 38BD     		pop	{r3, r4, r5, pc}
  56              		.cfi_endproc
  57              	.LFE63:
  58              		.size	calcRate, .-calcRate
  59              		.global	__aeabi_f2d
  60              		.global	__aeabi_fmul
  61              		.section	.text.exercise12,"ax",%progbits
  62              		.align	2
  63              		.global	exercise12
  64              		.thumb
  65              		.thumb_func
  66              		.type	exercise12, %function
  67              	exercise12:
  68              	.LFB64:
  19:exercise12.c  **** 
  20:exercise12.c  **** void exercise12(void)
  21:exercise12.c  **** {
  69              		.loc 1 21 0
  70              		.cfi_startproc
  71              		@ args = 0, pretend = 0, frame = 0
  72              		@ frame_needed = 0, uses_anonymous_args = 0
  73 0000 10B5     		push	{r4, lr}
  74              		.cfi_def_cfa_offset 8
  75              		.cfi_offset 4, -8
  76              		.cfi_offset 14, -4
  22:exercise12.c  ****      //Exercise 12
  23:exercise12.c  ****     printf("\n\nExercise 12. \n\n");
  77              		.loc 1 23 0
  78 0002 1648     		ldr	r0, .L5
  79 0004 FFF7FEFF 		bl	puts
  80              	.LVL5:
  24:exercise12.c  **** 
  25:exercise12.c  ****     int eur, usd;
  26:exercise12.c  ****     float exchangeAmt, rate;
  27:exercise12.c  **** 
  28:exercise12.c  ****     printf("Enter the Euro value:\n");
  81              		.loc 1 28 0
  82 0008 1548     		ldr	r0, .L5+4
  83 000a FFF7FEFF 		bl	puts
  84              	.LVL6:
  29:exercise12.c  ****     eur = readInt();
  85              		.loc 1 29 0
ARM GAS  C:\Users\vedranb\AppData\Local\Temp\ccVzZQhr.s 			page 3


  86 000e FFF7FEFF 		bl	readInt
  87              	.LVL7:
  88 0012 0446     		mov	r4, r0
  89              	.LVL8:
  30:exercise12.c  ****     printf("Enter the USD value:\n");
  90              		.loc 1 30 0
  91 0014 1348     		ldr	r0, .L5+8
  92              	.LVL9:
  93 0016 FFF7FEFF 		bl	puts
  94              	.LVL10:
  31:exercise12.c  ****     usd = readInt();
  95              		.loc 1 31 0
  96 001a FFF7FEFF 		bl	readInt
  97              	.LVL11:
  98 001e 0146     		mov	r1, r0
  99              	.LVL12:
  32:exercise12.c  **** 
  33:exercise12.c  ****     rate = calcRate(eur,usd);
 100              		.loc 1 33 0
 101 0020 2046     		mov	r0, r4
 102              	.LVL13:
 103 0022 FFF7FEFF 		bl	calcRate
 104              	.LVL14:
 105 0026 0446     		mov	r4, r0
 106              	.LVL15:
  34:exercise12.c  **** 
  35:exercise12.c  ****     printf("\n\nExchange rate is %.4f\n", rate);
 107              		.loc 1 35 0
 108 0028 FFF7FEFF 		bl	__aeabi_f2d
 109              	.LVL16:
 110 002c 0246     		mov	r2, r0
 111 002e 0B46     		mov	r3, r1
 112 0030 0D48     		ldr	r0, .L5+12
 113 0032 FFF7FEFF 		bl	printf
 114              	.LVL17:
  36:exercise12.c  **** 
  37:exercise12.c  ****     printf("How many Euros do you want to exchange?\n");
 115              		.loc 1 37 0
 116 0036 0D48     		ldr	r0, .L5+16
 117 0038 FFF7FEFF 		bl	puts
 118              	.LVL18:
  38:exercise12.c  ****     exchangeAmt = readFloat();
 119              		.loc 1 38 0
 120 003c FFF7FEFF 		bl	readFloat
 121              	.LVL19:
  39:exercise12.c  ****     printf("You will get %.2f USD\n", exchangeAmt * rate);
 122              		.loc 1 39 0
 123 0040 2146     		mov	r1, r4
 124 0042 FFF7FEFF 		bl	__aeabi_fmul
 125              	.LVL20:
 126 0046 FFF7FEFF 		bl	__aeabi_f2d
 127              	.LVL21:
 128 004a 0246     		mov	r2, r0
 129 004c 0B46     		mov	r3, r1
 130 004e 0848     		ldr	r0, .L5+20
 131 0050 FFF7FEFF 		bl	printf
 132              	.LVL22:
ARM GAS  C:\Users\vedranb\AppData\Local\Temp\ccVzZQhr.s 			page 4


  40:exercise12.c  **** 
  41:exercise12.c  ****     printf("\nEnd of Exercise 12. \n\n");
 133              		.loc 1 41 0
 134 0054 0748     		ldr	r0, .L5+24
 135 0056 FFF7FEFF 		bl	puts
 136              	.LVL23:
 137 005a 10BD     		pop	{r4, pc}
 138              	.LVL24:
 139              	.L6:
 140              		.align	2
 141              	.L5:
 142 005c 00000000 		.word	.LC0
 143 0060 14000000 		.word	.LC1
 144 0064 2C000000 		.word	.LC2
 145 0068 44000000 		.word	.LC3
 146 006c 60000000 		.word	.LC4
 147 0070 88000000 		.word	.LC5
 148 0074 A0000000 		.word	.LC6
 149              		.cfi_endproc
 150              	.LFE64:
 151              		.size	exercise12, .-exercise12
 152              		.section	.rodata.str1.4,"aMS",%progbits,1
 153              		.align	2
 154              	.LC0:
 155 0000 0A0A4578 		.ascii	"\012\012Exercise 12. \012\000"
 155      65726369 
 155      73652031 
 155      322E200A 
 155      00
 156 0011 000000   		.space	3
 157              	.LC1:
 158 0014 456E7465 		.ascii	"Enter the Euro value:\000"
 158      72207468 
 158      65204575 
 158      726F2076 
 158      616C7565 
 159 002a 0000     		.space	2
 160              	.LC2:
 161 002c 456E7465 		.ascii	"Enter the USD value:\000"
 161      72207468 
 161      65205553 
 161      44207661 
 161      6C75653A 
 162 0041 000000   		.space	3
 163              	.LC3:
 164 0044 0A0A4578 		.ascii	"\012\012Exchange rate is %.4f\012\000"
 164      6368616E 
 164      67652072 
 164      61746520 
 164      69732025 
 165 005d 000000   		.space	3
 166              	.LC4:
 167 0060 486F7720 		.ascii	"How many Euros do you want to exchange?\000"
 167      6D616E79 
 167      20457572 
 167      6F732064 
 167      6F20796F 
ARM GAS  C:\Users\vedranb\AppData\Local\Temp\ccVzZQhr.s 			page 5


 168              	.LC5:
 169 0088 596F7520 		.ascii	"You will get %.2f USD\012\000"
 169      77696C6C 
 169      20676574 
 169      20252E32 
 169      66205553 
 170 009f 00       		.space	1
 171              	.LC6:
 172 00a0 0A456E64 		.ascii	"\012End of Exercise 12. \012\000"
 172      206F6620 
 172      45786572 
 172      63697365 
 172      2031322E 
 173 00b7 00       		.text
 174              	.Letext0:
 175              		.file 2 "c:\\program files (x86)\\cypress\\psoc creator\\4.0\\psoc creator\\import\\gnu\\arm\\4.9.
 176              		.file 3 "c:\\program files (x86)\\cypress\\psoc creator\\4.0\\psoc creator\\import\\gnu\\arm\\4.9.
 177              		.file 4 "common_functions.h"
 178              		.file 5 "Generated_Source\\PSoC5/core_cm3.h"
 179              		.file 6 "<built-in>"
 180              		.file 7 "c:\\program files (x86)\\cypress\\psoc creator\\4.0\\psoc creator\\import\\gnu\\arm\\4.9.