ARM GAS  C:\Users\vedranb\AppData\Local\Temp\cc6WgUrK.s 			page 1


   1              		.syntax unified
   2              		.cpu cortex-m3
   3              		.fpu softvfp
   4              		.eabi_attribute 20, 1
   5              		.eabi_attribute 21, 1
   6              		.eabi_attribute 23, 3
   7              		.eabi_attribute 24, 1
   8              		.eabi_attribute 25, 1
   9              		.eabi_attribute 26, 1
  10              		.eabi_attribute 30, 1
  11              		.eabi_attribute 34, 1
  12              		.eabi_attribute 18, 4
  13              		.thumb
  14              		.file	"exercise11.c"
  15              		.text
  16              	.Ltext0:
  17              		.cfi_sections	.debug_frame
  18              		.global	__aeabi_fcmple
  19              		.global	__aeabi_fdiv
  20              		.global	__aeabi_fmul
  21              		.global	__aeabi_fadd
  22              		.global	__aeabi_fsub
  23              		.global	__aeabi_fcmpgt
  24              		.global	__aeabi_f2d
  25              		.section	.text.exercise11,"ax",%progbits
  26              		.align	2
  27              		.global	exercise11
  28              		.thumb
  29              		.thumb_func
  30              		.type	exercise11, %function
  31              	exercise11:
  32              	.LFB63:
  33              		.file 1 "exercise11.c"
   1:exercise11.c  **** /* ========================================
   2:exercise11.c  ****  *
   3:exercise11.c  ****  * Copyright YOUR COMPANY, THE YEAR
   4:exercise11.c  ****  * All Rights Reserved
   5:exercise11.c  ****  * UNPUBLISHED, LICENSED SOFTWARE.
   6:exercise11.c  ****  *
   7:exercise11.c  ****  * CONFIDENTIAL AND PROPRIETARY INFORMATION
   8:exercise11.c  ****  * WHICH IS THE PROPERTY OF your company.
   9:exercise11.c  ****  *
  10:exercise11.c  ****  * ========================================
  11:exercise11.c  **** */
  12:exercise11.c  **** #include "project.h"
  13:exercise11.c  **** #include <stdio.h>
  14:exercise11.c  **** #include "common_functions.h"
  15:exercise11.c  **** 
  16:exercise11.c  **** void exercise11(void)
  17:exercise11.c  **** {
  34              		.loc 1 17 0
  35              		.cfi_startproc
  36              		@ args = 0, pretend = 0, frame = 0
  37              		@ frame_needed = 0, uses_anonymous_args = 0
  38 0000 2DE9F041 		push	{r4, r5, r6, r7, r8, lr}
  39              		.cfi_def_cfa_offset 24
  40              		.cfi_offset 4, -24
ARM GAS  C:\Users\vedranb\AppData\Local\Temp\cc6WgUrK.s 			page 2


  41              		.cfi_offset 5, -20
  42              		.cfi_offset 6, -16
  43              		.cfi_offset 7, -12
  44              		.cfi_offset 8, -8
  45              		.cfi_offset 14, -4
  18:exercise11.c  ****      //Exercise 11
  19:exercise11.c  ****     printf("\n\nExercise 11. \n\n");
  46              		.loc 1 19 0
  47 0004 4548     		ldr	r0, .L26
  48 0006 FFF7FEFF 		bl	puts
  49              	.LVL0:
  20:exercise11.c  **** 
  21:exercise11.c  ****     float loanAmt = 0, loanInt = 0, payment, interestPaid = 0;
  50              		.loc 1 21 0
  51 000a 0026     		movs	r6, #0
  52 000c 3546     		mov	r5, r6
  22:exercise11.c  **** 
  23:exercise11.c  ****     while(loanAmt <= 0 || loanInt <= 0){
  53              		.loc 1 23 0
  54 000e 22E0     		b	.L2
  55              	.LVL1:
  56              	.L10:
  24:exercise11.c  ****         if(loanAmt <= 0){
  57              		.loc 1 24 0
  58 0010 2846     		mov	r0, r5
  59 0012 0021     		movs	r1, #0
  60 0014 FFF7FEFF 		bl	__aeabi_fcmple
  61              	.LVL2:
  62 0018 28B1     		cbz	r0, .L3
  25:exercise11.c  ****             printf("How much money do you wish to borrow, \nI assure you it's the best day of your 
  63              		.loc 1 25 0
  64 001a 4148     		ldr	r0, .L26+4
  65 001c FFF7FEFF 		bl	puts
  66              	.LVL3:
  26:exercise11.c  ****             loanAmt = readFloat();
  67              		.loc 1 26 0
  68 0020 FFF7FEFF 		bl	readFloat
  69              	.LVL4:
  70 0024 0546     		mov	r5, r0
  71              	.LVL5:
  72              	.L3:
  27:exercise11.c  ****         }
  28:exercise11.c  ****         if(loanInt <= 0){
  73              		.loc 1 28 0
  74 0026 3046     		mov	r0, r6
  75 0028 0021     		movs	r1, #0
  76 002a FFF7FEFF 		bl	__aeabi_fcmple
  77              	.LVL6:
  78 002e 28B1     		cbz	r0, .L5
  29:exercise11.c  ****             printf("As our favourite customer, you also get to choose your interest rate. \nNo stri
  79              		.loc 1 29 0
  80 0030 3C48     		ldr	r0, .L26+8
  81 0032 FFF7FEFF 		bl	puts
  82              	.LVL7:
  30:exercise11.c  ****             loanInt = readFloat();
  83              		.loc 1 30 0
  84 0036 FFF7FEFF 		bl	readFloat
ARM GAS  C:\Users\vedranb\AppData\Local\Temp\cc6WgUrK.s 			page 3


  85              	.LVL8:
  86 003a 0646     		mov	r6, r0
  87              	.LVL9:
  88              	.L5:
  31:exercise11.c  ****         }
  32:exercise11.c  ****         if(loanAmt <= 0 || loanInt <= 0){
  89              		.loc 1 32 0
  90 003c 2846     		mov	r0, r5
  91 003e 0021     		movs	r1, #0
  92 0040 FFF7FEFF 		bl	__aeabi_fcmple
  93              	.LVL10:
  94 0044 20B9     		cbnz	r0, .L7
  95              		.loc 1 32 0 is_stmt 0 discriminator 1
  96 0046 3046     		mov	r0, r6
  97 0048 0021     		movs	r1, #0
  98 004a FFF7FEFF 		bl	__aeabi_fcmple
  99              	.LVL11:
 100 004e 10B1     		cbz	r0, .L2
 101              	.L7:
  33:exercise11.c  ****             printf("You either want to give US money, or you want US to pay YOU interest. Please co
 102              		.loc 1 33 0 is_stmt 1
 103 0050 3548     		ldr	r0, .L26+12
 104 0052 FFF7FEFF 		bl	puts
 105              	.LVL12:
 106              	.L2:
  23:exercise11.c  ****         if(loanAmt <= 0){
 107              		.loc 1 23 0
 108 0056 2846     		mov	r0, r5
 109 0058 0021     		movs	r1, #0
 110 005a FFF7FEFF 		bl	__aeabi_fcmple
 111              	.LVL13:
 112 005e 0028     		cmp	r0, #0
 113 0060 D6D1     		bne	.L10
  23:exercise11.c  ****         if(loanAmt <= 0){
 114              		.loc 1 23 0 is_stmt 0 discriminator 1
 115 0062 3046     		mov	r0, r6
 116 0064 0021     		movs	r1, #0
 117 0066 FFF7FEFF 		bl	__aeabi_fcmple
 118              	.LVL14:
 119 006a 0028     		cmp	r0, #0
 120 006c D0D1     		bne	.L10
  23:exercise11.c  ****         if(loanAmt <= 0){
 121              		.loc 1 23 0
 122 006e 4FF00008 		mov	r8, #0
 123 0072 3FE0     		b	.L11
 124              	.LVL15:
 125              	.L19:
  34:exercise11.c  ****         }
  35:exercise11.c  ****     }
  36:exercise11.c  **** 
  37:exercise11.c  ****     while(loanAmt > 0){
  38:exercise11.c  ****         printf("\n\nIt's been a while... Time to pay up, how much would you like to pay now?\n");
 126              		.loc 1 38 0 is_stmt 1
 127 0074 2D48     		ldr	r0, .L26+16
 128 0076 FFF7FEFF 		bl	puts
 129              	.LVL16:
  39:exercise11.c  **** 
ARM GAS  C:\Users\vedranb\AppData\Local\Temp\cc6WgUrK.s 			page 4


  40:exercise11.c  ****         payment = 0;
 130              		.loc 1 40 0
 131 007a 0024     		movs	r4, #0
  41:exercise11.c  **** 
  42:exercise11.c  ****         while(payment <= 0){
 132              		.loc 1 42 0
 133 007c 09E0     		b	.L12
 134              	.LVL17:
 135              	.L15:
  43:exercise11.c  ****             payment = readFloat();
 136              		.loc 1 43 0
 137 007e FFF7FEFF 		bl	readFloat
 138              	.LVL18:
 139 0082 0446     		mov	r4, r0
 140              	.LVL19:
  44:exercise11.c  ****             if(payment <= 0){
 141              		.loc 1 44 0
 142 0084 0021     		movs	r1, #0
 143 0086 FFF7FEFF 		bl	__aeabi_fcmple
 144              	.LVL20:
 145 008a 10B1     		cbz	r0, .L12
  45:exercise11.c  ****                 printf("We are not giving you any more money, time for you to pay. (no negative num
 146              		.loc 1 45 0
 147 008c 2848     		ldr	r0, .L26+20
 148 008e FFF7FEFF 		bl	puts
 149              	.LVL21:
 150              	.L12:
  42:exercise11.c  ****             payment = readFloat();
 151              		.loc 1 42 0
 152 0092 2046     		mov	r0, r4
 153 0094 0021     		movs	r1, #0
 154 0096 FFF7FEFF 		bl	__aeabi_fcmple
 155              	.LVL22:
 156 009a 0028     		cmp	r0, #0
 157 009c EFD1     		bne	.L15
  46:exercise11.c  ****             }
  47:exercise11.c  ****         }
  48:exercise11.c  **** 
  49:exercise11.c  ****         interestPaid += loanAmt * (loanInt / 100);
 158              		.loc 1 49 0
 159 009e 3046     		mov	r0, r6
 160 00a0 2449     		ldr	r1, .L26+24
 161 00a2 FFF7FEFF 		bl	__aeabi_fdiv
 162              	.LVL23:
 163 00a6 2946     		mov	r1, r5
 164 00a8 FFF7FEFF 		bl	__aeabi_fmul
 165              	.LVL24:
 166 00ac 0746     		mov	r7, r0
 167 00ae 4046     		mov	r0, r8
 168 00b0 3946     		mov	r1, r7
 169 00b2 FFF7FEFF 		bl	__aeabi_fadd
 170              	.LVL25:
 171 00b6 8046     		mov	r8, r0
 172              	.LVL26:
  50:exercise11.c  ****         loanAmt += loanAmt * (loanInt / 100);
 173              		.loc 1 50 0
 174 00b8 2846     		mov	r0, r5
ARM GAS  C:\Users\vedranb\AppData\Local\Temp\cc6WgUrK.s 			page 5


 175              	.LVL27:
 176 00ba 3946     		mov	r1, r7
 177 00bc FFF7FEFF 		bl	__aeabi_fadd
 178              	.LVL28:
  51:exercise11.c  ****         loanAmt -= payment;
 179              		.loc 1 51 0
 180 00c0 2146     		mov	r1, r4
 181 00c2 FFF7FEFF 		bl	__aeabi_fsub
 182              	.LVL29:
 183 00c6 0546     		mov	r5, r0
 184              	.LVL30:
  52:exercise11.c  ****         if(loanAmt>0){
 185              		.loc 1 52 0
 186 00c8 0021     		movs	r1, #0
 187 00ca FFF7FEFF 		bl	__aeabi_fcmpgt
 188              	.LVL31:
 189 00ce 40B1     		cbz	r0, .L24
  53:exercise11.c  ****             printf("Thanks, you still owe %.2f\n", loanAmt);
 190              		.loc 1 53 0
 191 00d0 2846     		mov	r0, r5
 192 00d2 FFF7FEFF 		bl	__aeabi_f2d
 193              	.LVL32:
 194 00d6 0246     		mov	r2, r0
 195 00d8 0B46     		mov	r3, r1
 196 00da 1748     		ldr	r0, .L26+28
 197 00dc FFF7FEFF 		bl	printf
 198              	.LVL33:
 199 00e0 08E0     		b	.L11
 200              	.L24:
  54:exercise11.c  ****         }
  55:exercise11.c  ****         else{
  56:exercise11.c  ****             printf("Thanks, you're done, here's your change %.2f\n", - loanAmt);
 201              		.loc 1 56 0
 202 00e2 05F10040 		add	r0, r5, #-2147483648
 203 00e6 FFF7FEFF 		bl	__aeabi_f2d
 204              	.LVL34:
 205 00ea 0246     		mov	r2, r0
 206 00ec 0B46     		mov	r3, r1
 207 00ee 1348     		ldr	r0, .L26+32
 208 00f0 FFF7FEFF 		bl	printf
 209              	.LVL35:
 210              	.L11:
  37:exercise11.c  ****         printf("\n\nIt's been a while... Time to pay up, how much would you like to pay now?\n");
 211              		.loc 1 37 0
 212 00f4 2846     		mov	r0, r5
 213 00f6 0021     		movs	r1, #0
 214 00f8 FFF7FEFF 		bl	__aeabi_fcmpgt
 215              	.LVL36:
 216 00fc 0028     		cmp	r0, #0
 217 00fe B9D1     		bne	.L19
  57:exercise11.c  ****         }
  58:exercise11.c  ****     }
  59:exercise11.c  ****     printf("Wow, you actually made it. We can replace that noose with a tie now. \nYou successfully
 218              		.loc 1 59 0
 219 0100 4046     		mov	r0, r8
 220 0102 FFF7FEFF 		bl	__aeabi_f2d
 221              	.LVL37:
ARM GAS  C:\Users\vedranb\AppData\Local\Temp\cc6WgUrK.s 			page 6


 222 0106 0246     		mov	r2, r0
 223 0108 0B46     		mov	r3, r1
 224 010a 0D48     		ldr	r0, .L26+36
 225 010c FFF7FEFF 		bl	printf
 226              	.LVL38:
  60:exercise11.c  **** 
  61:exercise11.c  ****     printf("\nEnd of Exercise 11. \n\n");
 227              		.loc 1 61 0
 228 0110 0C48     		ldr	r0, .L26+40
 229 0112 FFF7FEFF 		bl	puts
 230              	.LVL39:
 231 0116 BDE8F081 		pop	{r4, r5, r6, r7, r8, pc}
 232              	.LVL40:
 233              	.L27:
 234 011a 00BF     		.align	2
 235              	.L26:
 236 011c 00000000 		.word	.LC0
 237 0120 14000000 		.word	.LC1
 238 0124 68000000 		.word	.LC2
 239 0128 18010000 		.word	.LC3
 240 012c B8010000 		.word	.LC4
 241 0130 04020000 		.word	.LC5
 242 0134 0000C842 		.word	1120403456
 243 0138 60020000 		.word	.LC6
 244 013c 7C020000 		.word	.LC7
 245 0140 AC020000 		.word	.LC8
 246 0144 44030000 		.word	.LC9
 247              		.cfi_endproc
 248              	.LFE63:
 249              		.size	exercise11, .-exercise11
 250              		.section	.rodata.str1.4,"aMS",%progbits,1
 251              		.align	2
 252              	.LC0:
 253 0000 0A0A4578 		.ascii	"\012\012Exercise 11. \012\000"
 253      65726369 
 253      73652031 
 253      312E200A 
 253      00
 254 0011 000000   		.space	3
 255              	.LC1:
 256 0014 486F7720 		.ascii	"How much money do you wish to borrow, \012I assure "
 256      6D756368 
 256      206D6F6E 
 256      65792064 
 256      6F20796F 
 257 0044 796F7520 		.ascii	"you it's the best day of your life:\000"
 257      69742773 
 257      20746865 
 257      20626573 
 257      74206461 
 258              	.LC2:
 259 0068 4173206F 		.ascii	"As our favourite customer, you also get to choose y"
 259      75722066 
 259      61766F75 
 259      72697465 
 259      20637573 
 260 009b 6F757220 		.ascii	"our interest rate. \012No strings attached (don't m"
ARM GAS  C:\Users\vedranb\AppData\Local\Temp\cc6WgUrK.s 			page 7


 260      696E7465 
 260      72657374 
 260      20726174 
 260      652E200A 
 261 00cb 696E6420 		.ascii	"ind that noose around your neck).\012Please enter t"
 261      74686174 
 261      206E6F6F 
 261      73652061 
 261      726F756E 
 262 00fb 68652069 		.ascii	"he interest in percentage:\000"
 262      6E746572 
 262      65737420 
 262      696E2070 
 262      65726365 
 263 0116 0000     		.space	2
 264              	.LC3:
 265 0118 596F7520 		.ascii	"You either want to give US money, or you want US to"
 265      65697468 
 265      65722077 
 265      616E7420 
 265      746F2067 
 266 014b 20706179 		.ascii	" pay YOU interest. Please concentrate and try again"
 266      20594F55 
 266      20696E74 
 266      65726573 
 266      742E2050 
 267 017e 2E20286E 		.ascii	". (no negative numbers, and interest has to be abov"
 267      6F206E65 
 267      67617469 
 267      7665206E 
 267      756D6265 
 268 01b1 65203029 		.ascii	"e 0)\000"
 268      00
 269 01b6 0000     		.space	2
 270              	.LC4:
 271 01b8 0A0A4974 		.ascii	"\012\012It's been a while... Time to pay up, how mu"
 271      27732062 
 271      65656E20 
 271      61207768 
 271      696C652E 
 272 01e5 63682077 		.ascii	"ch would you like to pay now?\000"
 272      6F756C64 
 272      20796F75 
 272      206C696B 
 272      6520746F 
 273 0203 00       		.space	1
 274              	.LC5:
 275 0204 57652061 		.ascii	"We are not giving you any more money, time for you "
 275      7265206E 
 275      6F742067 
 275      6976696E 
 275      6720796F 
 276 0237 746F2070 		.ascii	"to pay. (no negative numbers, try again)\000"
 276      61792E20 
 276      286E6F20 
 276      6E656761 
 276      74697665 
ARM GAS  C:\Users\vedranb\AppData\Local\Temp\cc6WgUrK.s 			page 8


 277              	.LC6:
 278 0260 5468616E 		.ascii	"Thanks, you still owe %.2f\012\000"
 278      6B732C20 
 278      796F7520 
 278      7374696C 
 278      6C206F77 
 279              	.LC7:
 280 027c 5468616E 		.ascii	"Thanks, you're done, here's your change %.2f\012\000"
 280      6B732C20 
 280      796F7527 
 280      72652064 
 280      6F6E652C 
 281 02aa 0000     		.space	2
 282              	.LC8:
 283 02ac 576F772C 		.ascii	"Wow, you actually made it. We can replace that noos"
 283      20796F75 
 283      20616374 
 283      75616C6C 
 283      79206D61 
 284 02df 65207769 		.ascii	"e with a tie now. \012You successfully repaid your "
 284      74682061 
 284      20746965 
 284      206E6F77 
 284      2E200A59 
 285 030f 6C6F616E 		.ascii	"loan and earned us %.2f in interest. Good work.\012"
 285      20616E64 
 285      20656172 
 285      6E656420 
 285      75732025 
 286 033f 0A00     		.ascii	"\012\000"
 287 0341 000000   		.space	3
 288              	.LC9:
 289 0344 0A456E64 		.ascii	"\012End of Exercise 11. \012\000"
 289      206F6620 
 289      45786572 
 289      63697365 
 289      2031312E 
 290 035b 00       		.text
 291              	.Letext0:
 292              		.file 2 "c:\\program files (x86)\\cypress\\psoc creator\\4.0\\psoc creator\\import\\gnu\\arm\\4.9.
 293              		.file 3 "c:\\program files (x86)\\cypress\\psoc creator\\4.0\\psoc creator\\import\\gnu\\arm\\4.9.
 294              		.file 4 "Generated_Source\\PSoC5/core_cm3.h"
 295              		.file 5 "<built-in>"
 296              		.file 6 "common_functions.h"
 297              		.file 7 "c:\\program files (x86)\\cypress\\psoc creator\\4.0\\psoc creator\\import\\gnu\\arm\\4.9.